L251 LINKER/LOCATER V4.66.93.0                                                          12/27/2024  03:02:31  PAGE 1


L251 LINKER/LOCATER V4.66.93.0, INVOKED BY:
C:\KEIL_V5\C251\BIN\L251.EXE .\Out_File\board.obj, .\Out_File\common.obj, ..\..\Libraries\libraries\STC32_FPMU_LARGE_V1.
>> 0.LIB (STC32F_FPMU), .\Out_File\zf_adc.obj, .\Out_File\zf_delay.obj, .\Out_File\zf_eeprom.obj, .\Out_File\zf_exti.obj
>> , .\Out_File\zf_gpio.obj, .\Out_File\zf_iic.obj, .\Out_File\zf_nvic.obj, .\Out_File\zf_pwm.obj, .\Out_File\zf_spi.obj
>> , .\Out_File\zf_tim.obj, .\Out_File\zf_uart.obj, .\Out_File\zf_fifo.obj, .\Out_File\SEEKFREE_18TFT.obj, .\Out_File\SE
>> EKFREE_ABSOLUTE_ENCODER.obj, .\Out_File\SEEKFREE_BLUETOOTH_CH9141.obj, ..\..\Libraries\seekfree_peripheral\SEEKFREE_C
>> ONFIG.LIB, .\Out_File\SEEKFREE_DL1A.obj, .\Out_File\SEEKFREE_DL1B.obj, .\Out_File\SEEKFREE_FONT.obj, .\Out_File\SEEKF
>> REE_FUNCTION.obj, .\Out_File\SEEKFREE_ICM20602.obj, .\Out_File\SEEKFREE_IMU660RA.obj, .\Out_File\SEEKFREE_IMU963RA.ob
>> j, .\Out_File\SEEKFREE_IPS114_SPI.obj, .\Out_File\SEEKFREE_IPS200_SPI.obj, .\Out_File\SEEKFREE_MPU6050.obj, .\Out_Fil
>> e\SEEKFREE_OLED.obj, .\Out_File\SEEKFREE_TSL1401.obj, .\Out_File\SEEKFREE_VIRSCO.obj, .\Out_File\SEEKFREE_WIRELESS.ob
>> j, .\Out_File\main.obj, .\Out_File\isr.obj, .\Out_File\CCD_Driver.obj, .\Out_File\control.obj, .\Out_File\buzzer.obj,
>>  .\Out_File\A_Vofa.obj, .\Out_File\inertia.obj, .\Out_File\circle.obj, .\Out_File\circle.obj, .\Out_File\seekfree_ass
>> istant.obj, .\Out_File\seekfree_assistant_inface.obj TO .\Out_File\SEEKFREE PRINT (.\Out_File\SEEKFREE.map) CASE DISA
>> BLEWARNING (16, 57) REMOVEUNUSED CLASSES (EDATA (0X0-0X1FFF), HDATA (0X0-0X1FFF))


CPU MODE:     251 SOURCE MODE
INTR FRAME:   4 BYTES SAVED ON INTERRUPT
MEMORY MODEL: XSMALL WITH FLOATING POINT ARITHMETIC


INPUT MODULES INCLUDED:
  .\Out_File\board.obj (board)
         COMMENT TYPE 0: C251 V5.60.0
  .\Out_File\common.obj (common)
         COMMENT TYPE 0: C251 V5.60.0
  ..\..\Libraries\libraries\STC32_FPMU_LARGE_V1.0.LIB (STC32F_FPMU)
         COMMENT TYPE 0: A251 V4.69.13.0
  .\Out_File\zf_adc.obj (zf_adc)
         COMMENT TYPE 0: C251 V5.60.0
  .\Out_File\zf_delay.obj (zf_delay)
         COMMENT TYPE 0: C251 V5.60.0
  .\Out_File\zf_eeprom.obj (zf_eeprom)
         COMMENT TYPE 0: C251 V5.60.0
  .\Out_File\zf_exti.obj (zf_exti)
         COMMENT TYPE 0: C251 V5.60.0
  .\Out_File\zf_gpio.obj (zf_gpio)
         COMMENT TYPE 0: C251 V5.60.0
  .\Out_File\zf_iic.obj (zf_iic)
         COMMENT TYPE 0: C251 V5.60.0
  .\Out_File\zf_nvic.obj (zf_nvic)
         COMMENT TYPE 0: C251 V5.60.0
  .\Out_File\zf_pwm.obj (zf_pwm)
         COMMENT TYPE 0: C251 V5.60.0
  .\Out_File\zf_spi.obj (zf_spi)
         COMMENT TYPE 0: C251 V5.60.0
  .\Out_File\zf_tim.obj (zf_tim)
         COMMENT TYPE 0: C251 V5.60.0
  .\Out_File\zf_uart.obj (zf_uart)
         COMMENT TYPE 0: C251 V5.60.0
  .\Out_File\zf_fifo.obj (zf_fifo)
         COMMENT TYPE 0: C251 V5.60.0
  .\Out_File\SEEKFREE_18TFT.obj (SEEKFREE_18TFT)
         COMMENT TYPE 0: C251 V5.60.0
  .\Out_File\SEEKFREE_ABSOLUTE_ENCODER.obj (SEEKFREE_ABSOLUTE_ENCODER)
         COMMENT TYPE 0: C251 V5.60.0
  .\Out_File\SEEKFREE_BLUETOOTH_CH9141.obj (SEEKFREE_BLUETOOTH_CH9141)
         COMMENT TYPE 0: C251 V5.60.0
  .\Out_File\SEEKFREE_DL1A.obj (SEEKFREE_DL1A)
         COMMENT TYPE 0: C251 V5.60.0
  .\Out_File\SEEKFREE_DL1B.obj (SEEKFREE_DL1B)
         COMMENT TYPE 0: C251 V5.60.0
  .\Out_File\SEEKFREE_FONT.obj (SEEKFREE_FONT)
         COMMENT TYPE 0: C251 V5.60.0
  .\Out_File\SEEKFREE_FUNCTION.obj (SEEKFREE_FUNCTION)
         COMMENT TYPE 0: C251 V5.60.0
L251 LINKER/LOCATER V4.66.93.0                                                        12/27/2024  03:02:31  PAGE 2


  .\Out_File\SEEKFREE_ICM20602.obj (SEEKFREE_ICM20602)
         COMMENT TYPE 0: C251 V5.60.0
  .\Out_File\SEEKFREE_IMU660RA.obj (SEEKFREE_IMU660RA)
         COMMENT TYPE 0: C251 V5.60.0
  .\Out_File\SEEKFREE_IMU963RA.obj (SEEKFREE_IMU963RA)
         COMMENT TYPE 0: C251 V5.60.0
  .\Out_File\SEEKFREE_IPS114_SPI.obj (SEEKFREE_IPS114_SPI)
         COMMENT TYPE 0: C251 V5.60.0
  .\Out_File\SEEKFREE_IPS200_SPI.obj (SEEKFREE_IPS200_SPI)
         COMMENT TYPE 0: C251 V5.60.0
  .\Out_File\SEEKFREE_MPU6050.obj (SEEKFREE_MPU6050)
         COMMENT TYPE 0: C251 V5.60.0
  .\Out_File\SEEKFREE_OLED.obj (SEEKFREE_OLED)
         COMMENT TYPE 0: C251 V5.60.0
  .\Out_File\SEEKFREE_TSL1401.obj (SEEKFREE_TSL1401)
         COMMENT TYPE 0: C251 V5.60.0
  .\Out_File\SEEKFREE_VIRSCO.obj (SEEKFREE_VIRSCO)
         COMMENT TYPE 0: C251 V5.60.0
  .\Out_File\SEEKFREE_WIRELESS.obj (SEEKFREE_WIRELESS)
         COMMENT TYPE 0: C251 V5.60.0
  .\Out_File\main.obj (main)
         COMMENT TYPE 0: C251 V5.60.0
  .\Out_File\isr.obj (isr)
         COMMENT TYPE 0: C251 V5.60.0
  .\Out_File\CCD_Driver.obj (CCD_Driver)
         COMMENT TYPE 0: C251 V5.60.0
  .\Out_File\control.obj (control)
         COMMENT TYPE 0: C251 V5.60.0
  .\Out_File\buzzer.obj (buzzer)
         COMMENT TYPE 0: C251 V5.60.0
  .\Out_File\A_Vofa.obj (A_Vofa)
         COMMENT TYPE 0: C251 V5.60.0
  .\Out_File\inertia.obj (inertia)
         COMMENT TYPE 0: C251 V5.60.0
  .\Out_File\circle.obj (circle)
         COMMENT TYPE 0: C251 V5.60.0
  .\Out_File\seekfree_assistant.obj (seekfree_assistant)
         COMMENT TYPE 0: C251 V5.60.0
  .\Out_File\seekfree_assistant_inface.obj (seekfree_assistant_inface)
         COMMENT TYPE 0: C251 V5.60.0
  ..\..\Libraries\seekfree_peripheral\SEEKFREE_CONFIG.LIB (SEEKFREE_CONFIG)
         COMMENT TYPE 0: C251 V5.60.0
  C:\KEIL_V5\C251\LIB\C2SFPXS.LIB (PRINTF)
         COMMENT TYPE 0: A251 V4.69.6.0
  C:\KEIL_V5\C251\LIB\C2SFPXS.LIB (?C?PRNFMT)
         COMMENT TYPE 0: A251 V4.69.6.0
  C:\KEIL_V5\C251\LIB\C2SFPXS.LIB (?C?FPCONVERT)
         COMMENT TYPE 0: A251 V4.69.6.0
  C:\KEIL_V5\C251\LIB\C2SFPXS.LIB (?C?FTNPWR)
         COMMENT TYPE 0: A251 V4.69.6.0
  C:\KEIL_V5\C251\LIB\C2SXS.LIB (?C_START)
         COMMENT TYPE 0: A251 V4.69.6.0
  C:\KEIL_V5\C251\LIB\C2SXS.LIB (?C?INITEDATA)
         COMMENT TYPE 0: A251 V4.69.6.0
  C:\KEIL_V5\C251\LIB\C2SXS.LIB (?C?SIDIV)
         COMMENT TYPE 0: A251 V4.69.6.0
  C:\KEIL_V5\C251\LIB\C2SXS.LIB (?C?LMUL)
         COMMENT TYPE 0: A251 V4.69.6.0
  C:\KEIL_V5\C251\LIB\C2SXS.LIB (?C?LIMUL)
         COMMENT TYPE 0: A251 V4.69.6.0
  C:\KEIL_V5\C251\LIB\C2SXS.LIB (?C?ULDIV)
         COMMENT TYPE 0: A251 V4.69.6.0
  C:\KEIL_V5\C251\LIB\C2SXS.LIB (?C?SLDIV)
         COMMENT TYPE 0: A251 V4.69.6.0
  C:\KEIL_V5\C251\LIB\C2SXS.LIB (?C?BMOVENP)
L251 LINKER/LOCATER V4.66.93.0                                                        12/27/2024  03:02:31  PAGE 3


         COMMENT TYPE 0: A251 V4.69.6.0
  C:\KEIL_V5\C251\LIB\C2SXS.LIB (STRLEN)
         COMMENT TYPE 0: C251 V5.58.7
  C:\KEIL_V5\C251\LIB\C2SXS.LIB (memcpy)
         COMMENT TYPE 0: C251 V5.58.7
  C:\KEIL_V5\C251\LIB\C2SXS.LIB (memset)
         COMMENT TYPE 0: C251 V5.58.7
  C:\KEIL_V5\C251\LIB\C2SXS.LIB (realloc)
         COMMENT TYPE 0: C251 V5.58.7
  C:\KEIL_V5\C251\LIB\C2SXS.LIB (?C?INITEDATA_END)
         COMMENT TYPE 0: A251 V4.69.6.0
  C:\KEIL_V5\C251\LIB\C2SXS.LIB (malloc)
         COMMENT TYPE 0: C251 V5.58.7
  C:\KEIL_V5\C251\LIB\C2SXS.LIB (free)
         COMMENT TYPE 0: C251 V5.58.7
  C:\KEIL_V5\C251\LIB\C2SXS.LIB (mdefine)
         COMMENT TYPE 0: C251 V5.58.7


ACTIVE MEMORY CLASSES OF MODULE:  .\Out_File\SEEKFREE (board)

BASE        START       END         USED      MEMORY CLASS
==========================================================
000000H     000000H     001FFFH     001B05H   EDATA
000000H     000000H     001FFFH     000004H   HDATA
FF0000H     FF0000H     FFFFFFH     00A680H   CODE
000000H     FF0000H     FFFFFFH     000CE6H   HCONST
FF0000H     FF0000H     FFFFFFH     000004H   CONST
000000H     000000H     00007FH     000008H   DATA


MEMORY MAP OF MODULE:  .\Out_File\SEEKFREE (board)


START     STOP      LENGTH    ALIGN  RELOC    MEMORY CLASS   SEGMENT NAME
=========================================================================
000000H   000007H   000008H   ---    AT..     DATA           "REG BANK 0"
000008H   000403H   0003FCH   BYTE   UNIT     EDATA          ?ED?A_VOFA
000404H   000666H   000263H   BYTE   UNIT     EDATA          ?ED?CCD_DRIVER
000667H   000867H   000201H   BYTE   UNIT     EDATA          ?ED?SEEKFREE_TSL1401
000868H   0009A4H   00013DH   BYTE   UNIT     EDATA          ?ED?SEEKFREE_ASSISTANT
0009A5H   000AA8H   000104H   BYTE   UNIT     EDATA          ?ED?MAIN
000AA9H   000B89H   0000E1H   BYTE   UNIT     EDATA          ?ED?CONTROL
000B8AH   000C16H   00008DH   BYTE   UNIT     EDATA          ?ED?SEEKFREE_ASSISTANT_DATA_ANALYSIS?SEEKFREE_ASSISTANT
000C17H   000CA2H   00008CH   BYTE   UNIT     EDATA          ?ED?DL1B_INIT?SEEKFREE_DL1B
000CA3H   000D01H   00005FH   BYTE   UNIT     EDATA          ?ED?ZF_SPRINTF?SEEKFREE_FUNCTION
000D02H   000D59H   000058H   BYTE   UNIT     EDATA          ?ED?SEEKFREE_BLUETOOTH_CH9141
000D5AH   000DB1H   000058H   BYTE   UNIT     EDATA          ?ED?SEEKFREE_WIRELESS
000DB2H   000DE9H   000038H   BYTE   UNIT     EDATA          ?ED?FUNC_DOUBLE_TO_STR?SEEKFREE_FUNCTION
000DEAH   000E1DH   000034H   BYTE   UNIT     EDATA          ?ED?INERTIA
000E1EH   000E4DH   000030H   BYTE   UNIT     EDATA          ?ED?LCD_SHOWFLOAT_SIMSPI?SEEKFREE_18TFT
000E4EH   000E7DH   000030H   BYTE   UNIT     EDATA          ?ED?LCD_SHOWFLOAT?SEEKFREE_18TFT
000E7EH   000EADH   000030H   BYTE   UNIT     EDATA          ?ED?IPS114_SHOWFLOAT_SIMSPI?SEEKFREE_IPS114_SPI
000EAEH   000EDDH   000030H   BYTE   UNIT     EDATA          ?ED?IPS114_SHOWFLOAT?SEEKFREE_IPS114_SPI
000EDEH   000F0DH   000030H   BYTE   UNIT     EDATA          ?ED?OLED_PRINTF_FLOAT?SEEKFREE_OLED
000F0EH   000F3DH   000030H   BYTE   UNIT     EDATA          ?ED?OLED_PRINTF_FLOAT_SPI?SEEKFREE_OLED
000F3EH   000F6CH   00002FH   BYTE   UNIT     EDATA          ?ED?DL1A_SET_MEASUREMENT_TIMING_BUDGET?SEEKFREE_DL1A
000F6DH   000F98H   00002CH   BYTE   UNIT     EDATA          ?ED?LCD_SHOWINT32_SIMSPI?SEEKFREE_18TFT
000F99H   000FC4H   00002CH   BYTE   UNIT     EDATA          ?ED?LCD_SHOWINT32?SEEKFREE_18TFT
000FC5H   000FF0H   00002CH   BYTE   UNIT     EDATA          ?ED?IPS114_SHOWINT32_SIMSPI?SEEKFREE_IPS114_SPI
000FF1H   00101CH   00002CH   BYTE   UNIT     EDATA          ?ED?IPS114_SHOWINT32?SEEKFREE_IPS114_SPI
00101DH   001048H   00002CH   BYTE   UNIT     EDATA          ?ED?OLED_PRINTF_INT32?SEEKFREE_OLED
001049H   001074H   00002CH   BYTE   UNIT     EDATA          ?ED?OLED_PRINTF_INT32_SPI?SEEKFREE_OLED
001075H   00109EH   00002AH   BYTE   UNIT     EDATA          ?ED?FUNC_FLOAT_TO_STR?SEEKFREE_FUNCTION
00109FH   0010C8H   00002AH   BYTE   UNIT     EDATA          ?ED?SEEKFREE_ASSISTANT_OSCILLOSCOPE_SEND?SEEKFREE_ASSISTAN
L251 LINKER/LOCATER V4.66.93.0                                                        12/27/2024  03:02:31  PAGE 4


                                                             -T
0010C9H   0010F0H   000028H   BYTE   UNIT     EDATA          _EDATA_GROUP_
0010F1H   001115H   000025H   BYTE   UNIT     EDATA          ?ED?FUNC_HEX_TO_STR?SEEKFREE_FUNCTION
001116H   001138H   000023H   BYTE   UNIT     EDATA          ?ED?IPS200_SHOW_FLOAT?SEEKFREE_IPS200_SPI
001139H   001158H   000020H   BYTE   UNIT     EDATA          ?ED?IPS200_SHOW_WAVE?SEEKFREE_IPS200_SPI
001159H   001177H   00001FH   BYTE   UNIT     EDATA          ?ED?DL1A_GET_MEASUREMENT_TIMING_BUDGET?SEEKFREE_DL1A
001178H   001196H   00001FH   BYTE   UNIT     EDATA          ?ED?CIRCLE
001197H   0011B5H   00001FH   BYTE   UNIT     EDATA          ?ED?SEEKFREE_ASSISTANT_CAMERA_BOUNDARY_CONFIG?SEEKFREE_ASS
                                                             -ISTANT
0011B6H   0011D2H   00001DH   BYTE   UNIT     EDATA          ?ED?FUNC_INT_TO_STR?SEEKFREE_FUNCTION
0011D3H   0011EFH   00001DH   BYTE   UNIT     EDATA          ?ED?IPS200_SHOW_INT?SEEKFREE_IPS200_SPI
0011F0H   00120CH   00001DH   BYTE   UNIT     EDATA          ?ED?IPS200_SHOW_UINT?SEEKFREE_IPS200_SPI
00120DH   001228H   00001CH   BYTE   UNIT     EDATA          ?ED?PID_REALIZE_A?CONTROL
001229H   001241H   000019H   BYTE   UNIT     EDATA          ?ED?FUNC_UINT_TO_STR?SEEKFREE_FUNCTION
001242H   00125AH   000019H   BYTE   UNIT     EDATA          ?ED?IPS200_SHOW_CHINESE?SEEKFREE_IPS200_SPI
00125BH   001272H   000018H   BYTE   UNIT     EDATA          ?ED?FIFO_READ_BUFFER?ZF_FIFO
001273H   00128AH   000018H   BYTE   UNIT     EDATA          ?ED?FIFO_READ_TAIL_BUFFER?ZF_FIFO
00128BH   0012A0H   000016H   BYTE   UNIT     EDATA          ?ED?IPS200_DRAW_LINE?SEEKFREE_IPS200_SPI
0012A1H   0012B5H   000015H   BYTE   UNIT     EDATA          ?ED?DL1A_INIT?SEEKFREE_DL1A
0012B6H   0012C9H   000014H   BYTE   UNIT     EDATA          ?ED?PWM_INIT?ZF_PWM
0012CAH   0012DDH   000014H   BYTE   UNIT     EDATA          ?ED?PWM_FREQ?ZF_PWM
0012DEH   0012F1H   000014H   BYTE   UNIT     EDATA          ?ED?NUMBER_CONVERSION_ASCII?SEEKFREE_FUNCTION
0012F2H   001303H   000012H   BYTE   UNIT     EDATA          ?ED?FIFO_WRITE_BUFFER?ZF_FIFO
001304H   001315H   000012H   BYTE   UNIT     EDATA          ?ED?SEEKFREE_IMU963RA
001316H   001327H   000012H   BYTE   UNIT     EDATA          ?ED?OLED_DIS_BMP?SEEKFREE_OLED
001328H   001339H   000012H   BYTE   UNIT     EDATA          ?ED?OLED_DIS_BMP_SPI?SEEKFREE_OLED
00133AH   00134AH   000011H   BYTE   UNIT     EDATA          ?ED?FUNC_STR_TO_FLOAT?SEEKFREE_FUNCTION
00134BH   00135BH   000011H   BYTE   UNIT     EDATA          ?ED?FUNC_STR_TO_DOUBLE?SEEKFREE_FUNCTION
00135CH   00136BH   000010H   BYTE   UNIT     EDATA          ?ED?FIFO_INIT?ZF_FIFO
00136CH   00137BH   000010H   BYTE   UNIT     EDATA          ?ED?DL1B_IIC_TRANSFER_8BIT_ARRAY?SEEKFREE_DL1B
00137CH   00138AH   00000FH   BYTE   UNIT     EDATA          ?ED?VODKA_JUSTFLOAT_SEND?A_VOFA
00138BH   001399H   00000FH   BYTE   UNIT     EDATA          ?ED?SEEKFREE_ASSISTANT_CAMERA_DATA_SEND?SEEKFREE_ASSISTANT
00139AH   0013A7H   00000EH   BYTE   UNIT     EDATA          ?ED?PWM_DUTY?ZF_PWM
0013A8H   0013B5H   00000EH   BYTE   UNIT     EDATA          ?ED?UART_INIT?ZF_UART
0013B6H   0013C3H   00000EH   BYTE   UNIT     EDATA          ?ED?FUNC_STR_TO_HEX?SEEKFREE_FUNCTION
0013C4H   0013D1H   00000EH   BYTE   UNIT     EDATA          ?ED?SEEKFREE_IPS200_SPI
0013D2H   0013DFH   00000EH   BYTE   UNIT     EDATA          ?ED?OLED_PRINT_CHINESE?SEEKFREE_OLED
0013E0H   0013EDH   00000EH   BYTE   UNIT     EDATA          ?ED?OLED_PRINT_CHINESE_SPI?SEEKFREE_OLED
0013EEH   0013FBH   00000EH   BYTE   UNIT     EDATA          ?ED?DATA_CONVERSION?SEEKFREE_VIRSCO
0013FCH   001408H   00000DH   BYTE   UNIT     EDATA          ?ED?SPI_INIT?ZF_SPI
001409H   001415H   00000DH   BYTE   UNIT     EDATA          ?ED?PRINTF_REVERSE_ORDER?SEEKFREE_FUNCTION
001416H   001422H   00000DH   BYTE   UNIT     EDATA          ?ED?ICM20602_SIMSPI_R_REG_BYTES?SEEKFREE_ICM20602
001423H   00142EH   00000CH   BYTE   UNIT     EDATA          ?ED?FIFO_READ_ELEMENT?ZF_FIFO
00142FH   00143AH   00000CH   BYTE   UNIT     EDATA          ?ED?LCD_SHOWINT16_SIMSPI?SEEKFREE_18TFT
00143BH   001446H   00000CH   BYTE   UNIT     EDATA          ?ED?LCD_SHOWUINT16_SIMSPI?SEEKFREE_18TFT
001447H   001452H   00000CH   BYTE   UNIT     EDATA          ?ED?LCD_SHOWINT16?SEEKFREE_18TFT
001453H   00145EH   00000CH   BYTE   UNIT     EDATA          ?ED?LCD_SHOWUINT16?SEEKFREE_18TFT
00145FH   00146AH   00000CH   BYTE   UNIT     EDATA          ?ED?SHOWIMAGE?SEEKFREE_18TFT
00146BH   001476H   00000CH   BYTE   UNIT     EDATA          ?ED?BLUETOOTH_CH9141_READ_BUFF?SEEKFREE_BLUETOOTH_CH9141
001477H   001482H   00000CH   BYTE   UNIT     EDATA          ?ED?DL1A_GET_SPAD_INFO?SEEKFREE_DL1A
001483H   00148EH   00000CH   BYTE   UNIT     EDATA          ?ED?DL1A_GET_SEQUENCE_STEP_TIMEOUTS?SEEKFREE_DL1A
00148FH   00149AH   00000CH   BYTE   UNIT     EDATA          ?ED?SEEKFREE_ICM20602
00149BH   0014A6H   00000CH   BYTE   UNIT     EDATA          ?ED?SEEKFREE_IMU660RA
0014A7H   0014B2H   00000CH   BYTE   UNIT     EDATA          ?ED?IPS114_SHOWINT16_SIMSPI?SEEKFREE_IPS114_SPI
0014B3H   0014BEH   00000CH   BYTE   UNIT     EDATA          ?ED?IPS114_SHOWUINT16_SIMSPI?SEEKFREE_IPS114_SPI
0014BFH   0014CAH   00000CH   BYTE   UNIT     EDATA          ?ED?IPS114_SHOWINT16?SEEKFREE_IPS114_SPI
0014CBH   0014D6H   00000CH   BYTE   UNIT     EDATA          ?ED?IPS114_SHOWUINT16?SEEKFREE_IPS114_SPI
0014D7H   0014E2H   00000CH   BYTE   UNIT     EDATA          ?ED?SEEKFREE_MPU6050
0014E3H   0014EEH   00000CH   BYTE   UNIT     EDATA          ?ED?WIRELESS_UART_READ_BUFF?SEEKFREE_WIRELESS
0014EFH   0014FAH   00000CH   BYTE   UNIT     EDATA          ?ED?CCD_THRESHOLD?CCD_DRIVER
0014FBH   001506H   00000CH   BYTE   UNIT     EDATA          ?ED?CALC_AVE?CONTROL
001507H   001512H   00000CH   BYTE   UNIT     EDATA          ?ED?INCPID_REALIZE?CONTROL
001513H   00151EH   00000CH   BYTE   UNIT     EDATA          ?ED?COUNT_ONES?CONTROL
00151FH   00152AH   00000CH   BYTE   UNIT     EDATA          ?ED?LCD_SHOW_CCD?CONTROL
00152BH   001536H   00000CH   BYTE   UNIT     EDATA          ?ED?FLOAT_TO_BYTE?A_VOFA
L251 LINKER/LOCATER V4.66.93.0                                                        12/27/2024  03:02:31  PAGE 5


001537H   001541H   00000BH   BYTE   UNIT     EDATA          ?ED?OLED_UINT16?SEEKFREE_OLED
001542H   00154CH   00000BH   BYTE   UNIT     EDATA          ?ED?OLED_INT16?SEEKFREE_OLED
00154DH   001557H   00000BH   BYTE   UNIT     EDATA          ?ED?OLED_UINT16_SPI?SEEKFREE_OLED
001558H   001562H   00000BH   BYTE   UNIT     EDATA          ?ED?OLED_INT16_SPI?SEEKFREE_OLED
001563H   00156DH   00000BH   BYTE   UNIT     EDATA          ?ED?ZEBRA_STOP?CCD_DRIVER
00156EH   001577H   00000AH   BYTE   UNIT     EDATA          ?ED?IAP_READ_BYTES?ZF_EEPROM
001578H   001581H   00000AH   BYTE   UNIT     EDATA          ?ED?IAP_WRITE_BYTES?ZF_EEPROM
001582H   00158BH   00000AH   BYTE   UNIT     EDATA          ?ED?UART_PUTBUFF?ZF_UART
00158CH   001595H   00000AH   BYTE   UNIT     EDATA          ?ED?FIFO_WRITE_ELEMENT?ZF_FIFO
001596H   00159FH   00000AH   BYTE   UNIT     EDATA          ?ED?LCD_SHOWSTR_SIMSPI?SEEKFREE_18TFT
0015A0H   0015A9H   00000AH   BYTE   UNIT     EDATA          ?ED?LCD_SHOWSTR?SEEKFREE_18TFT
0015AAH   0015B3H   00000AH   BYTE   UNIT     EDATA          ?ED?BLUETOOTH_CH9141_SEND_BUFF?SEEKFREE_BLUETOOTH_CH9141
0015B4H   0015BDH   00000AH   BYTE   UNIT     EDATA          ?ED?DL1A_SIMIIC_READ_REGS?SEEKFREE_DL1A
0015BEH   0015C7H   00000AH   BYTE   UNIT     EDATA          ?ED?DL1A_SIMIIC_READ_REGS_1?SEEKFREE_DL1A
0015C8H   0015D1H   00000AH   BYTE   UNIT     EDATA          ?ED?DL1A_ENCODE_TIMEOUT?SEEKFREE_DL1A
0015D2H   0015DBH   00000AH   BYTE   UNIT     EDATA          ?ED?IPS114_SHOWSTR_SIMSPI?SEEKFREE_IPS114_SPI
0015DCH   0015E5H   00000AH   BYTE   UNIT     EDATA          ?ED?IPS114_SHOWSTR?SEEKFREE_IPS114_SPI
0015E6H   0015EFH   00000AH   BYTE   UNIT     EDATA          ?ED?IPS200_SHOW_STRING?SEEKFREE_IPS200_SPI
0015F0H   0015F9H   00000AH   BYTE   UNIT     EDATA          ?ED?SEEKFREE_VIRSCO
0015FAH   001603H   00000AH   BYTE   UNIT     EDATA          ?ED?COUNTONES?CONTROL
001604H   00160DH   00000AH   BYTE   UNIT     EDATA          ?ED?SEEKFREE_ASSISTANT_CAMERA_INFORMATION_CONFIG?SEEKFREE_
                                                             -ASSISTANT
00160EH   001616H   000009H   BYTE   UNIT     EDATA          ?ED?LCD_SHOWINT8_SIMSPI?SEEKFREE_18TFT
001617H   00161FH   000009H   BYTE   UNIT     EDATA          ?ED?LCD_SHOWUINT8_SIMSPI?SEEKFREE_18TFT
001620H   001628H   000009H   BYTE   UNIT     EDATA          ?ED?LCD_SHOWINT8?SEEKFREE_18TFT
001629H   001631H   000009H   BYTE   UNIT     EDATA          ?ED?LCD_SHOWUINT8?SEEKFREE_18TFT
001632H   00163AH   000009H   BYTE   UNIT     EDATA          ?ED?DL1A_SIMIIC_WRITE_DATS?SEEKFREE_DL1A
00163BH   001643H   000009H   BYTE   UNIT     EDATA          ?ED?DL1A_TIMEOUT_MICROSECONDS_TO_MCLKS?SEEKFREE_DL1A
001644H   00164CH   000009H   BYTE   UNIT     EDATA          ?ED?DL1A_SET_SIGNAL_RATE_LIMIT?SEEKFREE_DL1A
00164DH   001655H   000009H   BYTE   UNIT     EDATA          ?ED?FUNC_STR_TO_INT?SEEKFREE_FUNCTION
001656H   00165EH   000009H   BYTE   UNIT     EDATA          ?ED?ICM20602_READ_REGISTERS?SEEKFREE_ICM20602
00165FH   001667H   000009H   BYTE   UNIT     EDATA          ?ED?IMU660RA_SIMSPI_W_REG_BYTES?SEEKFREE_IMU660RA
001668H   001670H   000009H   BYTE   UNIT     EDATA          ?ED?IMU660RA_SIMSPI_R_REG_BYTES?SEEKFREE_IMU660RA
001671H   001679H   000009H   BYTE   UNIT     EDATA          ?ED?IMU660RA_WRITE_REGISTERS?SEEKFREE_IMU660RA
00167AH   001682H   000009H   BYTE   UNIT     EDATA          ?ED?IMU660RA_READ_REGISTERS?SEEKFREE_IMU660RA
001683H   00168BH   000009H   BYTE   UNIT     EDATA          ?ED?IMU963RA_SIMSPI_R_REG_BYTES?SEEKFREE_IMU963RA
00168CH   001694H   000009H   BYTE   UNIT     EDATA          ?ED?IMU963RA_READ_ACC_GYRO_REGISTERS?SEEKFREE_IMU963RA
001695H   00169DH   000009H   BYTE   UNIT     EDATA          ?ED?IPS114_SHOWINT8_SIMSPI?SEEKFREE_IPS114_SPI
00169EH   0016A6H   000009H   BYTE   UNIT     EDATA          ?ED?IPS114_SHOWUINT8_SIMSPI?SEEKFREE_IPS114_SPI
0016A7H   0016AFH   000009H   BYTE   UNIT     EDATA          ?ED?IPS114_SHOWINT8?SEEKFREE_IPS114_SPI
0016B0H   0016B8H   000009H   BYTE   UNIT     EDATA          ?ED?IPS114_SHOWUINT8?SEEKFREE_IPS114_SPI
0016B9H   0016C1H   000009H   BYTE   UNIT     EDATA          ?ED?IPS200_SHOW_CHAR?SEEKFREE_IPS200_SPI
0016C2H   0016CAH   000009H   BYTE   UNIT     EDATA          ?ED?OLED_P6X8STR?SEEKFREE_OLED
0016CBH   0016D3H   000009H   BYTE   UNIT     EDATA          ?ED?OLED_P8X16STR?SEEKFREE_OLED
0016D4H   0016DCH   000009H   BYTE   UNIT     EDATA          ?ED?OLED_P6X8STR_SPI?SEEKFREE_OLED
0016DDH   0016E5H   000009H   BYTE   UNIT     EDATA          ?ED?OLED_P8X16STR_SPI?SEEKFREE_OLED
0016E6H   0016EEH   000009H   BYTE   UNIT     EDATA          ?ED?CRC_CHECK?SEEKFREE_VIRSCO
0016EFH   0016F7H   000009H   BYTE   UNIT     EDATA          ?ED?CCD_TWO_VALUE?CCD_DRIVER
0016F8H   001700H   000009H   BYTE   UNIT     EDATA          ?ED?ADDTOARRAY?CONTROL
001701H   001709H   000009H   BYTE   UNIT     EDATA          ?ED?YAW_ERROR?INERTIA
00170AH   001712H   000009H   BYTE   UNIT     EDATA          ?ED?SEEKFREE_ASSISTANT_SUM?SEEKFREE_ASSISTANT
001713H   00171AH   000008H   BYTE   UNIT     EDATA          ?ED?SET_CLK?BOARD
00171BH   001722H   000008H   BYTE   UNIT     EDATA          ?ED?FIFO_HEAD_OFFSET?ZF_FIFO
001723H   00172AH   000008H   BYTE   UNIT     EDATA          ?ED?FIFO_END_OFFSET?ZF_FIFO
00172BH   001732H   000008H   BYTE   UNIT     EDATA          ?ED?LCD_SET_REGION_SIMSPI?SEEKFREE_18TFT
001733H   00173AH   000008H   BYTE   UNIT     EDATA          ?ED?LCD_SHOWCHAR_SIMSPI?SEEKFREE_18TFT
00173BH   001742H   000008H   BYTE   UNIT     EDATA          ?ED?LCD_SET_REGION?SEEKFREE_18TFT
001743H   00174AH   000008H   BYTE   UNIT     EDATA          ?ED?LCD_SHOWCHAR?SEEKFREE_18TFT
00174BH   001752H   000008H   BYTE   UNIT     EDATA          ?ED?FUNC_GET_GREATEST_COMMON_DIVISOR?SEEKFREE_FUNCTION
001753H   00175AH   000008H   BYTE   UNIT     EDATA          ?ED?FUNC_STR_TO_UINT?SEEKFREE_FUNCTION
00175BH   001762H   000008H   BYTE   UNIT     EDATA          ?ED?IPS114_SET_REGION_SIMSPI?SEEKFREE_IPS114_SPI
001763H   00176AH   000008H   BYTE   UNIT     EDATA          ?ED?IPS114_SHOWCHAR_SIMSPI?SEEKFREE_IPS114_SPI
00176BH   001772H   000008H   BYTE   UNIT     EDATA          ?ED?IPS114_SET_REGION?SEEKFREE_IPS114_SPI
001773H   00177AH   000008H   BYTE   UNIT     EDATA          ?ED?IPS114_SHOWCHAR?SEEKFREE_IPS114_SPI
00177BH   001782H   000008H   BYTE   UNIT     EDATA          ?ED?IPS200_SET_REGION?SEEKFREE_IPS200_SPI
L251 LINKER/LOCATER V4.66.93.0                                                        12/27/2024  03:02:31  PAGE 6


001783H   00178AH   000008H   BYTE   UNIT     EDATA          ?ED?OLED_HEXASCII?SEEKFREE_OLED
00178BH   001792H   000008H   BYTE   UNIT     EDATA          ?ED?OLED_HEXASCII_SPI?SEEKFREE_OLED
001793H   00179AH   000008H   BYTE   UNIT     EDATA          ?ED?WIRELESS_UART_SEND_BUFF?SEEKFREE_WIRELESS
00179BH   0017A2H   000008H   BYTE   UNIT     EDATA          ?ED?POSPID_REALIZE?CONTROL
0017A3H   0017A9H   000007H   BYTE   UNIT     EDATA          ?ED?IIC_READ_REG_BYTES?ZF_IIC
0017AAH   0017B0H   000007H   BYTE   UNIT     EDATA          ?ED?DL1A_TIMEOUT_MCLKS_TO_MICROSECONDS?SEEKFREE_DL1A
0017B1H   0017B7H   000007H   BYTE   UNIT     EDATA          ?ED?IMU660RA_GET_ACC?SEEKFREE_IMU660RA
0017B8H   0017BEH   000007H   BYTE   UNIT     EDATA          ?ED?IMU660RA_GET_GYRO?SEEKFREE_IMU660RA
0017BFH   0017C5H   000007H   BYTE   UNIT     EDATA          ?ED?IMU963RA_GET_MAG?SEEKFREE_IMU963RA
0017C6H   0017CCH   000007H   BYTE   UNIT     EDATA          ?ED?MPU6050_SIMIIC_READ_REGS?SEEKFREE_MPU6050
0017CDH   0017D3H   000007H   BYTE   UNIT     EDATA          ?ED?CCD_SEND_DATA?SEEKFREE_TSL1401
0017D4H   0017DAH   000007H   BYTE   UNIT     EDATA          ?ED?SEEKFREE_ASSISTANT_CAMERA_DOT_SEND?SEEKFREE_ASSISTANT
0017DBH   0017E0H   000006H   BYTE   UNIT     EDATA          ?ED?ADC_ONCE?ZF_ADC
0017E1H   0017E6H   000006H   BYTE   UNIT     EDATA          ?ED?DELAY_US?ZF_DELAY
0017E7H   0017ECH   000006H   BYTE   UNIT     EDATA          ?ED?IIC_INIT?ZF_IIC
0017EDH   0017F2H   000006H   BYTE   UNIT     EDATA          ?ED?IIC_READ_REG?ZF_IIC
0017F3H   0017F8H   000006H   BYTE   UNIT     EDATA          ?ED?PIT_TIMER_MS?ZF_TIM
0017F9H   0017FEH   000006H   BYTE   UNIT     EDATA          ?ED?UART_PUTSTR?ZF_UART
0017FFH   001804H   000006H   BYTE   UNIT     EDATA          ?ED?FIFO_CLEAR?ZF_FIFO
001805H   00180AH   000006H   BYTE   UNIT     EDATA          ?ED?LCD_DRAWPOINT_SIMSPI?SEEKFREE_18TFT
00180BH   001810H   000006H   BYTE   UNIT     EDATA          ?ED?LCD_DRAWPOINT?SEEKFREE_18TFT
001811H   001816H   000006H   BYTE   UNIT     EDATA          ?ED?ICM20602_GET_ACC?SEEKFREE_ICM20602
001817H   00181CH   000006H   BYTE   UNIT     EDATA          ?ED?ICM20602_GET_GYRO?SEEKFREE_ICM20602
00181DH   001822H   000006H   BYTE   UNIT     EDATA          ?ED?ICM20602_ACC_TRANSITION?SEEKFREE_ICM20602
001823H   001828H   000006H   BYTE   UNIT     EDATA          ?ED?ICM20602_GYRO_TRANSITION?SEEKFREE_ICM20602
001829H   00182EH   000006H   BYTE   UNIT     EDATA          ?ED?IMU660RA_ACC_TRANSITION?SEEKFREE_IMU660RA
00182FH   001834H   000006H   BYTE   UNIT     EDATA          ?ED?IMU660RA_GYRO_TRANSITION?SEEKFREE_IMU660RA
001835H   00183AH   000006H   BYTE   UNIT     EDATA          ?ED?IMU963RA_WRITE_MAG_REGISTER?SEEKFREE_IMU963RA
00183BH   001840H   000006H   BYTE   UNIT     EDATA          ?ED?IMU963RA_GET_ACC?SEEKFREE_IMU963RA
001841H   001846H   000006H   BYTE   UNIT     EDATA          ?ED?IMU963RA_GET_GYRO?SEEKFREE_IMU963RA
001847H   00184CH   000006H   BYTE   UNIT     EDATA          ?ED?IMU963RA_ACC_TRANSITION?SEEKFREE_IMU963RA
00184DH   001852H   000006H   BYTE   UNIT     EDATA          ?ED?IMU963RA_GYRO_TRANSITION?SEEKFREE_IMU963RA
001853H   001858H   000006H   BYTE   UNIT     EDATA          ?ED?IMU963RA_MAG_TRANSITION?SEEKFREE_IMU963RA
001859H   00185EH   000006H   BYTE   UNIT     EDATA          ?ED?IPS114_CLEAR_SIMSPI?SEEKFREE_IPS114_SPI
00185FH   001864H   000006H   BYTE   UNIT     EDATA          ?ED?IPS114_DRAWPOINT_SIMSPI?SEEKFREE_IPS114_SPI
001865H   00186AH   000006H   BYTE   UNIT     EDATA          ?ED?IPS114_CLEAR?SEEKFREE_IPS114_SPI
00186BH   001870H   000006H   BYTE   UNIT     EDATA          ?ED?IPS114_DRAWPOINT?SEEKFREE_IPS114_SPI
001871H   001876H   000006H   BYTE   UNIT     EDATA          ?ED?IPS200_FULL?SEEKFREE_IPS200_SPI
001877H   00187CH   000006H   BYTE   UNIT     EDATA          ?ED?IPS200_DRAW_POINT?SEEKFREE_IPS200_SPI
00187DH   001882H   000006H   BYTE   UNIT     EDATA          ?ED?MPU6050_GET_ACCDATA?SEEKFREE_MPU6050
001883H   001888H   000006H   BYTE   UNIT     EDATA          ?ED?MPU6050_GET_GYRO?SEEKFREE_MPU6050
001889H   00188DH   000005H   BYTE   UNIT     EDATA          ?ED?ZF_UART
00188EH   001892H   000005H   BYTE   UNIT     EDATA          ?ED?SIMSPI_R_REG_BYTE?SEEKFREE_ABSOLUTE_ENCODER
001893H   001897H   000005H   BYTE   UNIT     EDATA          ?ED?ENCODER_SIMSPI_R_REG_BYTE?SEEKFREE_ABSOLUTE_ENCODER
001898H   00189CH   000005H   BYTE   UNIT     EDATA          ?ED?SPI_R_REG_BYTE?SEEKFREE_ABSOLUTE_ENCODER
00189DH   0018A1H   000005H   BYTE   UNIT     EDATA          ?ED?ENCODER_SPI_R_REG_BYTE?SEEKFREE_ABSOLUTE_ENCODER
0018A2H   0018A6H   000005H   BYTE   UNIT     EDATA          ?ED?DL1A_GET_SEQUENCE_STEP_ENABLES?SEEKFREE_DL1A
0018A7H   0018ABH   000005H   BYTE   UNIT     EDATA          ?ED?DL1A_PERFORM_SINGLE_REF_CALIBRATION?SEEKFREE_DL1A
0018ACH   0018B0H   000005H   BYTE   UNIT     EDATA          ?ED?DL1B_GET_DISTANCE?SEEKFREE_DL1B
0018B1H   0018B5H   000005H   BYTE   UNIT     EDATA          ?ED?ICM20602_SIMSPI_R_REG_BYTE?SEEKFREE_ICM20602
0018B6H   0018BAH   000005H   BYTE   UNIT     EDATA          ?ED?IMU963RA_SIMSPI_R_REG_BYTE?SEEKFREE_IMU963RA
0018BBH   0018BEH   000004H   BYTE   UNIT     EDATA          ?ED?BOARD
0018BFH   0018C2H   000004H   BYTE   UNIT     EDATA          ?ED?CLOCK_INIT?BOARD
0018C3H   0018C6H   000004H   BYTE   UNIT     EDATA          ?ED?ADC_INIT?ZF_ADC
0018C7H   0018CAH   000004H   BYTE   UNIT     EDATA          ?ED?ZF_DELAY
0018CBH   0018CEH   000004H   BYTE   UNIT     EDATA          ?ED?DELAY_MS?ZF_DELAY
0018CFH   0018D2H   000004H   BYTE   UNIT     EDATA          ?ED?IAP_ERASE_PAGE?ZF_EEPROM
0018D3H   0018D6H   000004H   BYTE   UNIT     EDATA          ?ED?EXIT_INIT?ZF_EXTI
0018D7H   0018DAH   000004H   BYTE   UNIT     EDATA          ?ED?GPIO_PULL_SET?ZF_GPIO
0018DBH   0018DEH   000004H   BYTE   UNIT     EDATA          ?ED?GPIO_MODE?ZF_GPIO
0018DFH   0018E2H   000004H   BYTE   UNIT     EDATA          ?ED?CTIMER_COUNT_READ?ZF_TIM
0018E3H   0018E6H   000004H   BYTE   UNIT     EDATA          ?ED?FIFO_USED?ZF_FIFO
0018E7H   0018EAH   000004H   BYTE   UNIT     EDATA          ?ED?LCD_CLEAR_SIMSPI?SEEKFREE_18TFT
0018EBH   0018EEH   000004H   BYTE   UNIT     EDATA          ?ED?LCD_WRITEDATA_16BIT?SEEKFREE_18TFT
0018EFH   0018F2H   000004H   BYTE   UNIT     EDATA          ?ED?LCD_CLEAR?SEEKFREE_18TFT
L251 LINKER/LOCATER V4.66.93.0                                                        12/27/2024  03:02:31  PAGE 7


0018F3H   0018F6H   000004H   BYTE   UNIT     EDATA          ?ED?SEEKFREE_DL1B
0018F7H   0018FAH   000004H   BYTE   UNIT     EDATA          ?ED?FUNC_SOFT_DELAY?SEEKFREE_FUNCTION
0018FBH   0018FEH   000004H   BYTE   UNIT     EDATA          ?ED?ICM20602_SELF_CHECK?SEEKFREE_ICM20602
0018FFH   001902H   000004H   BYTE   UNIT     EDATA          ?ED?ICM20602_INIT?SEEKFREE_ICM20602
001903H   001906H   000004H   BYTE   UNIT     EDATA          ?ED?IMU660RA_SELF_CHECK?SEEKFREE_IMU660RA
001907H   00190AH   000004H   BYTE   UNIT     EDATA          ?ED?IMU963RA_READ_MAG_REGISTER?SEEKFREE_IMU963RA
00190BH   00190EH   000004H   BYTE   UNIT     EDATA          ?ED?IMU963RA_ACC_GYRO_SELF_CHECK?SEEKFREE_IMU963RA
00190FH   001912H   000004H   BYTE   UNIT     EDATA          ?ED?IMU963RA_MAG_SELF_CHECK?SEEKFREE_IMU963RA
001913H   001916H   000004H   BYTE   UNIT     EDATA          ?ED?IPS114_WRITEDATA_16BIT?SEEKFREE_IPS114_SPI
001917H   00191AH   000004H   BYTE   UNIT     EDATA          ?ED?IPS200_WRITE_16BIT_DATA_SPI?SEEKFREE_IPS200_SPI
00191BH   00191EH   000004H   BYTE   UNIT     EDATA          ?ED?IPS200_CLEAR?SEEKFREE_IPS200_SPI
00191FH   001922H   000004H   BYTE   UNIT     EDATA          ?ED?IPS200_SET_COLOR?SEEKFREE_IPS200_SPI
001923H   001926H   000004H   BYTE   UNIT     EDATA          ?ED?PID_PARAM_INIT?CONTROL
001927H   00192AH   000004H   BYTE   UNIT     EDATA          ?ED?FILTER?CONTROL
00192BH   00192EH   000004H   BYTE   UNIT     EDATA          ?ED?MAX?CONTROL
00192FH   001932H   000004H   BYTE   UNIT     EDATA          ?ED?CAR_CHECK?CONTROL
001933H   001936H   000004H   BYTE   UNIT     EDATA          ?ED?SEEKFREE_ASSISTANT_INFACE
001937H   001939H   000003H   BYTE   UNIT     EDATA          ?ED?IIC_DELAY_US?ZF_IIC
00193AH   00193CH   000003H   BYTE   UNIT     EDATA          ?ED?WAIT?ZF_IIC
00193DH   00193FH   000003H   BYTE   UNIT     EDATA          ?ED?IIC_WRITE_REG?ZF_IIC
001940H   001942H   000003H   BYTE   UNIT     EDATA          ?ED?NVIC_SETPRIORITY?ZF_NVIC
001943H   001945H   000003H   BYTE   UNIT     EDATA          ?ED?UART_PUTCHAR?ZF_UART
001946H   001948H   000003H   BYTE   UNIT     EDATA          ?ED?LCD_WRITEDATA_16BIT_SIMSPI?SEEKFREE_18TFT
001949H   00194BH   000003H   BYTE   UNIT     EDATA          ?ED?ENCODER_SIMSPI_W_REG_BYTE?SEEKFREE_ABSOLUTE_ENCODER
00194CH   00194EH   000003H   BYTE   UNIT     EDATA          ?ED?ENCODER_SPI_W_REG_BYTE?SEEKFREE_ABSOLUTE_ENCODER
00194FH   001951H   000003H   BYTE   UNIT     EDATA          ?ED?SEEKFREE_DL1A
001952H   001954H   000003H   BYTE   UNIT     EDATA          ?ED?DL1A_READ_CH?SEEKFREE_DL1A
001955H   001957H   000003H   BYTE   UNIT     EDATA          ?ED?DL1A_SIMIIC_WRITE_REG?SEEKFREE_DL1A
001958H   00195AH   000003H   BYTE   UNIT     EDATA          ?ED?DL1A_SIMIIC_READ_REG?SEEKFREE_DL1A
00195BH   00195DH   000003H   BYTE   UNIT     EDATA          ?ED?DL1A_GET_VCSEL_PULSE_PERIOD?SEEKFREE_DL1A
00195EH   001960H   000003H   BYTE   UNIT     EDATA          ?ED?DL1A_GET_DISTANCE?SEEKFREE_DL1A
001961H   001963H   000003H   BYTE   UNIT     EDATA          ?ED?DL1B_READ_CH?SEEKFREE_DL1B
001964H   001966H   000003H   BYTE   UNIT     EDATA          ?ED?IMU660RA_READ_REGISTER?SEEKFREE_IMU660RA
001967H   001969H   000003H   BYTE   UNIT     EDATA          ?ED?IPS114_WRITEDATAI_16BIT_SIMSPI?SEEKFREE_IPS114_SPI
00196AH   00196CH   000003H   BYTE   UNIT     EDATA          ?ED?MPU6050_READ_CH?SEEKFREE_MPU6050
00196DH   00196FH   000003H   BYTE   UNIT     EDATA          ?ED?MPU6050_SIMIIC_WRITE_REG?SEEKFREE_MPU6050
001970H   001972H   000003H   BYTE   UNIT     EDATA          ?ED?MPU6050_SIMIIC_READ_REG?SEEKFREE_MPU6050
001973H   001975H   000003H   BYTE   UNIT     EDATA          ?ED?OLED_FILL?SEEKFREE_OLED
001976H   001978H   000003H   BYTE   UNIT     EDATA          ?ED?OLED_PUTPIXEL?SEEKFREE_OLED
001979H   00197BH   000003H   BYTE   UNIT     EDATA          ?ED?OLED_FILL_SPI?SEEKFREE_OLED
00197CH   00197EH   000003H   BYTE   UNIT     EDATA          ?ED?OLED_PUTPIXEL_SPI?SEEKFREE_OLED
00197FH   001981H   000003H   BYTE   UNIT     EDATA          ?ED?MAIN?MAIN
001982H   001984H   000003H   BYTE   UNIT     EDATA          ?ED?ISR
001985H   001986H   000002H   BYTE   UNIT     EDATA          ?ED?COMMON
001987H   001988H   000002H   BYTE   UNIT     EDATA          ?ED?SEND_DATA?ZF_IIC
001989H   00198AH   000002H   BYTE   UNIT     EDATA          ?ED?IIC_CHANGE_PIN?ZF_IIC
00198BH   00198CH   000002H   BYTE   UNIT     EDATA          ?ED?PWM_SET_GPIO?ZF_PWM
00198DH   00198EH   000002H   BYTE   UNIT     EDATA          ?ED?SPI_CHANGE_PIN?ZF_SPI
00198FH   001990H   000002H   BYTE   UNIT     EDATA          ?ED?CTIMER_COUNT_INIT?ZF_TIM
001991H   001992H   000002H   BYTE   UNIT     EDATA          ?ED?CTIMER_COUNT_CLEAN?ZF_TIM
001993H   001994H   000002H   BYTE   UNIT     EDATA          ?ED?LCD_WRITEINDEX_SIMSPI?SEEKFREE_18TFT
001995H   001996H   000002H   BYTE   UNIT     EDATA          ?ED?LCD_WRITEDATA_SIMSPI?SEEKFREE_18TFT
001997H   001998H   000002H   BYTE   UNIT     EDATA          ?ED?ENCODER_DELAY_US?SEEKFREE_ABSOLUTE_ENCODER
001999H   00199AH   000002H   BYTE   UNIT     EDATA          ?ED?SIMSPI_WR_BYTE?SEEKFREE_ABSOLUTE_ENCODER
00199BH   00199CH   000002H   BYTE   UNIT     EDATA          ?ED?SIMSPI_W_REG_BYTE?SEEKFREE_ABSOLUTE_ENCODER
00199DH   00199EH   000002H   BYTE   UNIT     EDATA          ?ED?SET_ZERO_POSITION_SIMSPI?SEEKFREE_ABSOLUTE_ENCODER
00199FH   0019A0H   000002H   BYTE   UNIT     EDATA          ?ED?ENCODER_ANGLE_SIMSPI?SEEKFREE_ABSOLUTE_ENCODER
0019A1H   0019A2H   000002H   BYTE   UNIT     EDATA          ?ED?SPI_W_REG_BYTE?SEEKFREE_ABSOLUTE_ENCODER
0019A3H   0019A4H   000002H   BYTE   UNIT     EDATA          ?ED?SET_ZERO_POSITION_SPI?SEEKFREE_ABSOLUTE_ENCODER
0019A5H   0019A6H   000002H   BYTE   UNIT     EDATA          ?ED?ENCODER_ANGLE_SPI?SEEKFREE_ABSOLUTE_ENCODER
0019A7H   0019A8H   000002H   BYTE   UNIT     EDATA          ?ED?DL1A_SIMIIC_DELAY?SEEKFREE_DL1A
0019A9H   0019AAH   000002H   BYTE   UNIT     EDATA          ?ED?DL1A_SEND_CH?SEEKFREE_DL1A
0019ABH   0019ACH   000002H   BYTE   UNIT     EDATA          ?ED?DL1A_DECODE_TIMEOUT?SEEKFREE_DL1A
0019ADH   0019AEH   000002H   BYTE   UNIT     EDATA          ?ED?DL1B_SIMIIC_DELAY?SEEKFREE_DL1B
0019AFH   0019B0H   000002H   BYTE   UNIT     EDATA          ?ED?DL1B_SEND_CH?SEEKFREE_DL1B
L251 LINKER/LOCATER V4.66.93.0                                                        12/27/2024  03:02:31  PAGE 8


0019B1H   0019B2H   000002H   BYTE   UNIT     EDATA          ?ED?ICM20602_SIMSPI_WR_BYTE?SEEKFREE_ICM20602
0019B3H   0019B4H   000002H   BYTE   UNIT     EDATA          ?ED?ICM20602_SIMSPI_W_REG_BYTE?SEEKFREE_ICM20602
0019B5H   0019B6H   000002H   BYTE   UNIT     EDATA          ?ED?ICM20602_WRITE_REGISTER?SEEKFREE_ICM20602
0019B7H   0019B8H   000002H   BYTE   UNIT     EDATA          ?ED?ICM20602_READ_REGISTER?SEEKFREE_ICM20602
0019B9H   0019BAH   000002H   BYTE   UNIT     EDATA          ?ED?IMU660RA_SIMSPI_WR_BYTE?SEEKFREE_IMU660RA
0019BBH   0019BCH   000002H   BYTE   UNIT     EDATA          ?ED?IMU660RA_SIMSPI_W_REG_BYTE?SEEKFREE_IMU660RA
0019BDH   0019BEH   000002H   BYTE   UNIT     EDATA          ?ED?IMU660RA_WRITE_REGISTER?SEEKFREE_IMU660RA
0019BFH   0019C0H   000002H   BYTE   UNIT     EDATA          ?ED?IMU963RA_SIMSPI_WR_BYTE?SEEKFREE_IMU963RA
0019C1H   0019C2H   000002H   BYTE   UNIT     EDATA          ?ED?IMU963RA_SIMSPI_W_REG_BYTE?SEEKFREE_IMU963RA
0019C3H   0019C4H   000002H   BYTE   UNIT     EDATA          ?ED?IMU963RA_WRITE_ACC_GYRO_REGISTER?SEEKFREE_IMU963RA
0019C5H   0019C6H   000002H   BYTE   UNIT     EDATA          ?ED?IMU963RA_READ_ACC_GYRO_REGISTER?SEEKFREE_IMU963RA
0019C7H   0019C8H   000002H   BYTE   UNIT     EDATA          ?ED?IMU963RA_CONNECT_MAG?SEEKFREE_IMU963RA
0019C9H   0019CAH   000002H   BYTE   UNIT     EDATA          ?ED?IPS114_WRITEINDEX_SIMSPI?SEEKFREE_IPS114_SPI
0019CBH   0019CCH   000002H   BYTE   UNIT     EDATA          ?ED?IPS114_WRITEDATA_SIMSPI?SEEKFREE_IPS114_SPI
0019CDH   0019CEH   000002H   BYTE   UNIT     EDATA          ?ED?IPS200_WRITE_16BIT_DATA?SEEKFREE_IPS200_SPI
0019CFH   0019D0H   000002H   BYTE   UNIT     EDATA          ?ED?IPS200_SET_DIR?SEEKFREE_IPS200_SPI
0019D1H   0019D2H   000002H   BYTE   UNIT     EDATA          ?ED?IPS200_SET_FONT?SEEKFREE_IPS200_SPI
0019D3H   0019D4H   000002H   BYTE   UNIT     EDATA          ?ED?MPU6050_SIMIIC_DELAY?SEEKFREE_MPU6050
0019D5H   0019D6H   000002H   BYTE   UNIT     EDATA          ?ED?MPU6050_SEND_CH?SEEKFREE_MPU6050
0019D7H   0019D8H   000002H   BYTE   UNIT     EDATA          ?ED?OLED_WRDAT?SEEKFREE_OLED
0019D9H   0019DAH   000002H   BYTE   UNIT     EDATA          ?ED?OLED_WRCMD?SEEKFREE_OLED
0019DBH   0019DCH   000002H   BYTE   UNIT     EDATA          ?ED?OLED_SET_POS?SEEKFREE_OLED
0019DDH   0019DEH   000002H   BYTE   UNIT     EDATA          ?ED?OLED_CLRPIXEL?SEEKFREE_OLED
0019DFH   0019E0H   000002H   BYTE   UNIT     EDATA          ?ED?OLED_SET_POS_SPI?SEEKFREE_OLED
0019E1H   0019E2H   000002H   BYTE   UNIT     EDATA          ?ED?OLED_CLRPIXEL_SPI?SEEKFREE_OLED
0019E3H   0019E4H   000002H   BYTE   UNIT     EDATA          ?ED?BIN_CCD_FILTER?CCD_DRIVER
0019E5H   0019E6H   000002H   BYTE   UNIT     EDATA          ?ED?MYABS?CCD_DRIVER
0019E7H   0019E8H   000002H   BYTE   UNIT     EDATA          ?ED?GET_MID_POINT1?CCD_DRIVER
0019E9H   0019EAH   000002H   BYTE   UNIT     EDATA          ?ED?GET_MID_POINT2?CCD_DRIVER
0019EBH   0019ECH   000002H   BYTE   UNIT     EDATA          ?ED?KEY_SCAN?CONTROL
0019EDH   0019EEH   000002H   BYTE   UNIT     EDATA          ?ED?GET_INERTIA_OFFSET?INERTIA
0019EFH   0019EFH   000001H   BYTE   UNIT     EDATA          ?ED?PUTCHAR?BOARD
0019F0H   0019F0H   000001H   BYTE   UNIT     EDATA          ?ED?IAP_SET_TPS?ZF_EEPROM
0019F1H   0019F1H   000001H   BYTE   UNIT     EDATA          ?ED?START?ZF_IIC
0019F2H   0019F2H   000001H   BYTE   UNIT     EDATA          ?ED?RECV_ACK?ZF_IIC
0019F3H   0019F3H   000001H   BYTE   UNIT     EDATA          ?ED?SEND_ACK?ZF_IIC
0019F4H   0019F4H   000001H   BYTE   UNIT     EDATA          ?ED?STOP?ZF_IIC
0019F5H   0019F5H   000001H   BYTE   UNIT     EDATA          ?ED?SPI_MOSI?ZF_SPI
0019F6H   0019F6H   000001H   BYTE   UNIT     EDATA          ?ED?SPI_CHANGE_MODE?ZF_SPI
0019F7H   0019F7H   000001H   BYTE   UNIT     EDATA          ?ED?LCD_WRITEINDEX?SEEKFREE_18TFT
0019F8H   0019F8H   000001H   BYTE   UNIT     EDATA          ?ED?LCD_WRITEDATA?SEEKFREE_18TFT
0019F9H   0019F9H   000001H   BYTE   UNIT     EDATA          ?ED?ENCODER_SELF4_CHECK?SEEKFREE_ABSOLUTE_ENCODER
0019FAH   0019FAH   000001H   BYTE   UNIT     EDATA          ?ED?SPI_WR_BYTE?SEEKFREE_ABSOLUTE_ENCODER
0019FBH   0019FBH   000001H   BYTE   UNIT     EDATA          ?ED?ENCODER_SELF5_CHECK?SEEKFREE_ABSOLUTE_ENCODER
0019FCH   0019FCH   000001H   BYTE   UNIT     EDATA          ?ED?DL1A_SIMIIC_SENDACK?SEEKFREE_DL1A
0019FDH   0019FDH   000001H   BYTE   UNIT     EDATA          ?ED?DL1B_SIMIIC_SENDACK?SEEKFREE_DL1B
0019FEH   0019FEH   000001H   BYTE   UNIT     EDATA          ?ED?IMU660RA_INIT?SEEKFREE_IMU660RA
0019FFH   0019FFH   000001H   BYTE   UNIT     EDATA          ?ED?IMU963RA_INIT?SEEKFREE_IMU963RA
001A00H   001A00H   000001H   BYTE   UNIT     EDATA          ?ED?IPS114_WRITEINDEX?SEEKFREE_IPS114_SPI
001A01H   001A01H   000001H   BYTE   UNIT     EDATA          ?ED?IPS114_WRITEDATA?SEEKFREE_IPS114_SPI
001A02H   001A02H   000001H   BYTE   UNIT     EDATA          ?ED?IPS200_WRITE_8BIT_DATA_SPI?SEEKFREE_IPS200_SPI
001A03H   001A03H   000001H   BYTE   UNIT     EDATA          ?ED?IPS200_WRITE_COMMAND?SEEKFREE_IPS200_SPI
001A04H   001A04H   000001H   BYTE   UNIT     EDATA          ?ED?IPS200_WRITE_8BIT_DATA?SEEKFREE_IPS200_SPI
001A05H   001A05H   000001H   BYTE   UNIT     EDATA          ?ED?MPU6050_SIMIIC_SENDACK?SEEKFREE_MPU6050
001A06H   001A06H   000001H   BYTE   UNIT     EDATA          ?ED?OLED_WRDAT_SPI?SEEKFREE_OLED
001A07H   001A07H   000001H   BYTE   UNIT     EDATA          ?ED?OLED_WRCMD_SPI?SEEKFREE_OLED
001A08H   001A08H   000001H   BYTE   UNIT     EDATA          ?ED?CCD_COLLECT?SEEKFREE_TSL1401
001A09H   001A09H   000001H   BYTE   UNIT     EDATA          ?ED?WIRELESS_UART_SEND_BYTE?SEEKFREE_WIRELESS
001A0AH   001A0AH   000001H   BYTE   UNIT     EDATA          ?ED?UART1_ISR?ISR
001A0BH   001A0BH   000001H   BYTE   UNIT     EDATA          ?ED?KP_GET?CONTROL
001A0CH   001A0CH   000001H   BYTE   UNIT     EDATA          ?ED?GET_TARGET_YAW_CROSS_CRICLE?INERTIA
001A0DH   001B0CH   000100H   BYTE   UNIT     EDATA          ?STACK
001B0DH   001B10H   000004H   BYTE   INSEG    HDATA          ?FD?MDEFINE
001B11H   FEFFFFH   FEE4EFH   ---    ---      **GAP**
FF0000H   FF0002H   000003H   ---    OFFS..   CODE           ?CO?start251?4
L251 LINKER/LOCATER V4.66.93.0                                                        12/27/2024  03:02:31  PAGE 9


FF0003H   FF0005H   000003H   ---    OFFS..   CODE           ?PR?IV?0
FF0006H   FF0009H   000004H   BYTE   INSEG    CODE           ?PR?ENABLEGLOBALIRQ?BOARD
FF000AH   FF000AH   000001H   BYTE   INSEG    CODE           ?PR?INT1_ISR?ISR
FF000BH   FF000DH   000003H   ---    OFFS..   CODE           ?PR?IV?1
FF000EH   FF0011H   000004H   BYTE   UNIT     CODE           ?PR?FPADD?STC32F_FPMU
FF0012H   FF0012H   000001H   BYTE   INSEG    CODE           ?PR?TM0_ISR?ISR
FF0013H   FF0015H   000003H   ---    OFFS..   CODE           ?PR?IV?2
FF0016H   FF0019H   000004H   BYTE   UNIT     CODE           ?PR?FPSUB?STC32F_FPMU
FF001AH   FF001AH   000001H   BYTE   INSEG    CODE           ?PR?TM1_ISR?ISR
FF001BH   FF001DH   000003H   ---    OFFS..   CODE           ?PR?IV?3
FF001EH   FF0021H   000004H   BYTE   UNIT     CODE           ?PR?FPMUL?STC32F_FPMU
FF0022H   FF0022H   000001H   ---    ---      **GAP**
FF0023H   FF0025H   000003H   ---    OFFS..   CODE           ?PR?IV?4
FF0026H   FF0042H   00001DH   BYTE   INSEG    CODE           ?PR?DL1B_SIMIIC_DELAY?SEEKFREE_DL1B
FF0043H   FF0045H   000003H   ---    OFFS..   CODE           ?PR?IV?8
FF0046H   FF0051H   00000CH   BYTE   UNIT     CODE           ?PR?FPCMP?STC32F_FPMU
FF0052H   FF0052H   000001H   ---    ---      **GAP**
FF0053H   FF0055H   000003H   ---    OFFS..   CODE           ?PR?IV?10
FF0056H   FF0059H   000004H   BYTE   UNIT     CODE           ?PR?FPDIV?STC32F_FPMU
FF005AH   FF005AH   000001H   ---    ---      **GAP**
FF005BH   FF005DH   000003H   ---    OFFS..   CODE           ?PR?IV?11
FF005EH   FF0061H   000004H   BYTE   UNIT     CODE           ?PR?FCASTL?STC32F_FPMU
FF0062H   FF0062H   000001H   ---    ---      **GAP**
FF0063H   FF0065H   000003H   ---    OFFS..   CODE           ?PR?IV?12
FF0066H   FF0080H   00001BH   BYTE   INSEG    CODE           ?PR?IMU660RA_SIMSPI_W_REG_BYTE?SEEKFREE_IMU660RA
FF0081H   FF0082H   000002H   ---    ---      **GAP**
FF0083H   FF0085H   000003H   ---    OFFS..   CODE           ?PR?IV?16
FF0086H   FF0089H   000004H   BYTE   INSEG    CODE           ?PR?INT0_ISR?ISR
FF008AH   FF008AH   000001H   ---    ---      **GAP**
FF008BH   FF008DH   000003H   ---    OFFS..   CODE           ?PR?IV?17
FF008EH   FF0091H   000004H   BYTE   INSEG    CODE           ?PR?INT2_ISR?ISR
FF0092H   FF0092H   000001H   ---    ---      **GAP**
FF0093H   FF0095H   000003H   ---    OFFS..   CODE           ?PR?IV?18
FF0096H   FF0099H   000004H   BYTE   INSEG    CODE           ?PR?INT3_ISR?ISR
FF009AH   FF009AH   000001H   ---    ---      **GAP**
FF009BH   FF009DH   000003H   ---    OFFS..   CODE           ?PR?IV?19
FF009EH   FF00A1H   000004H   BYTE   INSEG    CODE           ?PR?INT4_ISR?ISR
FF00A2H   FF00A2H   000001H   ---    ---      **GAP**
FF00A3H   FF00A5H   000003H   ---    OFFS..   CODE           ?PR?IV?20
FF00A6H   FF212CH   002087H   BYTE   UNIT     CODE           ?CO?SEEKFREE_CONFIG
FF212DH   FF374CH   001620H   BYTE   UNIT     CODE           ?CO?SEEKFREE_FONT
FF374DH   FF4059H   00090DH   BYTE   INSEG    CODE           ?PR?GPIO_MODE?ZF_GPIO
FF405AH   FF475DH   000704H   BYTE   INSEG    CODE           ?PR?CRICLE_PROCCESS?CIRCLE
FF475EH   FF4E2DH   0006D0H   BYTE   UNIT     CODE           ?C?LIB_CODE
FF4E2EH   FF548EH   000661H   BYTE   INSEG    CODE           ?PR?ZF_SPRINTF?SEEKFREE_FUNCTION
FF548FH   FF5ABAH   00062CH   BYTE   INSEG    CODE           ?PR?SET_CLK?BOARD
FF5ABBH   FF607DH   0005C3H   BYTE   INSEG    CODE           ?PR?GET_OFFSET?CCD_DRIVER
FF607EH   FF64FFH   000482H   BYTE   INSEG    CODE           ?PR?TM3_ISR?ISR
FF6500H   FF68D9H   0003DAH   BYTE   INSEG    CODE           ?PR?PWM_INIT?ZF_PWM
FF68DAH   FF6CAFH   0003D6H   BYTE   INSEG    CODE           ?PR?TM4_ISR?ISR
FF6CB0H   FF7041H   000392H   BYTE   INSEG    CODE           ?PR?FIFO_WRITE_BUFFER?ZF_FIFO
FF7042H   FF73B4H   000373H   BYTE   INSEG    CODE           ?PR?DISPLAY_1?CONTROL
FF73B5H   FF76C0H   00030CH   BYTE   INSEG    CODE           ?PR?PWM_SET_GPIO?ZF_PWM
FF76C1H   FF7973H   0002B3H   BYTE   INSEG    CODE           ?PR?UART_INIT?ZF_UART
FF7974H   FF7C12H   00029FH   BYTE   INSEG    CODE           ?PR?GET_MID_POINT2?CCD_DRIVER
FF7C13H   FF7E8CH   00027AH   BYTE   INSEG    CODE           ?PR?GET_MID_POINT1?CCD_DRIVER
FF7E8DH   FF807EH   0001F2H   BYTE   INSEG    CODE           ?PR?LCD_INIT?SEEKFREE_18TFT
FF807FH   FF8260H   0001E2H   BYTE   INSEG    CODE           ?PR?CROSS_CRICLE_PROCCESS?CIRCLE
FF8261H   FF8423H   0001C3H   BYTE   INSEG    CODE           ?PR?BIN_CCD_FILTER?CCD_DRIVER
FF8424H   FF8594H   000171H   BYTE   INSEG    CODE           ?PR?POSPID_REALIZE?CONTROL
FF8595H   FF8701H   00016DH   BYTE   INSEG    CODE           ?PR?CAR_CHECK?CONTROL
FF8702H   FF8846H   000145H   BYTE   INSEG    CODE           ?PR?LCD_SHOWFLOAT?SEEKFREE_18TFT
FF8847H   FF897CH   000136H   BYTE   INSEG    CODE           ?PR?CAR_INIT?CONTROL
FF897DH   FF8AAFH   000133H   BYTE   INSEG    CODE           ?PR?DL1B_GET_DISTANCE?SEEKFREE_DL1B
FF8AB0H   FF8BC7H   000118H   BYTE   INSEG    CODE           ?PR?PWM_DUTY?ZF_PWM
L251 LINKER/LOCATER V4.66.93.0                                                        12/27/2024  03:02:31  PAGE 10


FF8BC8H   FF8CDEH   000117H   BYTE   INSEG    CODE           ?PR?NUMBER_CONVERSION_ASCII?SEEKFREE_FUNCTION
FF8CDFH   FF8DF0H   000112H   BYTE   INSEG    CODE           ?PR?DL1B_INIT?SEEKFREE_DL1B
FF8DF1H   FF8EF0H   000100H   BYTE   INSEG    CODE           ?PR?CCD_TWO_VALUE?CCD_DRIVER
FF8EF1H   FF8FD5H   0000E5H   BYTE   INSEG    CODE           ?PR?PIT_TIMER_MS?ZF_TIM
FF8FD6H   FF90A3H   0000CEH   BYTE   INSEG    CODE           ?PR?SPI_INIT?ZF_SPI
FF90A4H   FF9170H   0000CDH   BYTE   INSEG    CODE           ?PR?LCD_SHOWUINT16?SEEKFREE_18TFT
FF9171H   FF923DH   0000CDH   BYTE   INSEG    CODE           ?PR?CCD_THRESHOLD?CCD_DRIVER
FF923EH   FF92FCH   0000BFH   BYTE   INSEG    CODE           ?PR?LCD_SHOWCHAR?SEEKFREE_18TFT
FF92FDH   FF93BAH   0000BEH   BYTE   INSEG    CODE           ?PR?KEY_SCAN?CONTROL
FF93BBH   FF946FH   0000B5H   BYTE   INSEG    CODE           ?PR?ADC_INIT?ZF_ADC
FF9470H   FF9523H   0000B4H   BYTE   INSEG    CODE           ?PR?CTIMER_COUNT_READ?ZF_TIM
FF9524H   FF95CDH   0000AAH   BYTE   INSEG    CODE           ?PR?IMU660RA_INIT?SEEKFREE_IMU660RA
FF95CEH   FF9675H   0000A8H   BYTE   INSEG    CODE           ?PR?IMU660RA_GYRO_TRANSITION?SEEKFREE_IMU660RA
FF9676H   FF9715H   0000A0H   BYTE   INSEG    CODE           ?PR?PID_PARAM_INIT?CONTROL
FF9716H   FF97AAH   000095H   BYTE   INSEG    CODE           ?PR?PRINTF_REVERSE_ORDER?SEEKFREE_FUNCTION
FF97ABH   FF9835H   00008BH   BYTE   INSEG    CODE           ?PR?ZEBRA_STOP?CCD_DRIVER
FF9836H   FF98BEH   000089H   BYTE   INSEG    CODE           ?PR?MAIN?MAIN
FF98BFH   FF9942H   000084H   BYTE   INSEG    CODE           ?PR?GET_INERTIA_OFFSET?INERTIA
FF9943H   FF99C5H   000083H   BYTE   INSEG    CODE           ?PR?FIFO_INIT?ZF_FIFO
FF99C6H   FF9A47H   000082H   BYTE   INSEG    CODE           ?PR?COUNT_ONES?CONTROL
FF9A48H   FF9AC7H   000080H   BYTE   INSEG    CODE           ?PR?CCD_COLLECT?SEEKFREE_TSL1401
FF9AC8H   FF9B43H   00007CH   BYTE   INSEG    CODE           ?PR?GET_TARGET_YAW_CROSS_CRICLE?INERTIA
FF9B44H   FF9BBDH   00007AH   BYTE   INSEG    CODE           ?PR?YAW_ERROR?INERTIA
FF9BBEH   FF9C36H   000079H   BYTE   INSEG    CODE           ?PR?DL1B_IIC_TRANSFER_8BIT_ARRAY?SEEKFREE_DL1B
FF9C37H   FF9CADH   000077H   BYTE   INSEG    CODE           ?PR?BOARD_INIT?BOARD
FF9CAEH   FF9D22H   000075H   BYTE   INSEG    CODE           ?PR?UART_PUTCHAR?ZF_UART
FF9D23H   FF9D92H   000070H   BYTE   INSEG    CODE           ?PR?FIFO_HEAD_OFFSET?ZF_FIFO
FF9D93H   FF9DFCH   00006AH   BYTE   INSEG    CODE           ?PR?DL1B_READ_CH?SEEKFREE_DL1B
FF9DFDH   FF9E60H   000064H   BYTE   INSEG    CODE           ?PR?LCD_SET_REGION?SEEKFREE_18TFT
FF9E61H   FF9EC1H   000061H   BYTE   INSEG    CODE           ?PR?KP_GET?CONTROL
FF9EC2H   FF9F1FH   00005EH   BYTE   INSEG    CODE           ?PR?UART2_ISR?ISR
FF9F20H   FF9F7CH   00005DH   BYTE   INSEG    CODE           ?PR?CTIMER_COUNT_CLEAN?ZF_TIM
FF9F7DH   FF9FD9H   00005DH   BYTE   INSEG    CODE           ?PR?LCD_SHOWSTR?SEEKFREE_18TFT
FF9FDAH   FFA032H   000059H   BYTE   INSEG    CODE           ?PR?IMU660RA_SIMSPI_WR_BYTE?SEEKFREE_IMU660RA
FFA033H   FFA089H   000057H   BYTE   INSEG    CODE           ?PR?LCD_CLEAR?SEEKFREE_18TFT
FFA08AH   FFA0DFH   000056H   BYTE   INSEG    CODE           ?PR?ADC_ONCE?ZF_ADC
FFA0E0H   FFA133H   000054H   BYTE   INSEG    CODE           ?PR?CTIMER_COUNT_INIT?ZF_TIM
FFA134H   FFA183H   000050H   BYTE   INSEG    CODE           ?PR?IMU660RA_GET_GYRO?SEEKFREE_IMU660RA
FFA184H   FFA1CEH   00004BH   BYTE   INSEG    CODE           ?PR?IMU660RA_SELF_CHECK?SEEKFREE_IMU660RA
FFA1CFH   FFA219H   00004BH   BYTE   INSEG    CODE           ?PR?IMU660RA_SIMSPI_R_REG_BYTES?SEEKFREE_IMU660RA
FFA21AH   FFA262H   000049H   BYTE   INSEG    CODE           ?PR?DL1B_SEND_CH?SEEKFREE_DL1B
FFA263H   FFA2A6H   000044H   BYTE   INSEG    CODE           ?PR?WIRELESS_UART_INIT?SEEKFREE_WIRELESS
FFA2A7H   FFA2E8H   000042H   BYTE   INSEG    CODE           ?PR?UART1_ISR?ISR
FFA2E9H   FFA2FBH   000013H   BYTE   UNIT     CODE           ?C_C51STARTUP
FFA2FCH   FFA324H   000029H   BYTE   UNIT     CODE           ?C_C51STARTUP?2
FFA325H   FFA327H   000003H   BYTE   UNIT     CODE           ?C_C51STARTUP?3
FFA328H   FFA365H   00003EH   BYTE   INSEG    CODE           ?PR?IMU660RA_SIMSPI_W_REG_BYTES?SEEKFREE_IMU660RA
FFA366H   FFA39AH   000035H   BYTE   INSEG    CODE           ?PR?DELAY_MS?ZF_DELAY
FFA39BH   FFA3C5H   00002BH   BYTE   INSEG    CODE           ?PR?MYABS?CCD_DRIVER
FFA3C6H   FFA3EFH   00002AH   BYTE   INSEG    CODE           ?PR?LCD_WRITEDATA_16BIT?SEEKFREE_18TFT
FFA3F0H   FFA417H   000028H   BYTE   INSEG    CODE           ?PR?DL1B_SIMIIC_SENDACK?SEEKFREE_DL1B
FFA418H   FFA43DH   000026H   BYTE   INSEG    CODE           ?PR?IMU660RA_READ_REGISTERS?SEEKFREE_IMU660RA
FFA43EH   FFA462H   000025H   BYTE   INSEG    CODE           ?PR?MEMCPY?_?MEMCPY
FFA463H   FFA485H   000023H   BYTE   INSEG    CODE           ?PR?DELAY_INIT?ZF_DELAY
FFA486H   FFA4A7H   000022H   BYTE   INSEG    CODE           ?PR?IMU660RA_READ_REGISTER?SEEKFREE_IMU660RA
FFA4A8H   FFA4C9H   000022H   BYTE   INSEG    CODE           ?PR?IMU660RA_WRITE_REGISTERS?SEEKFREE_IMU660RA
FFA4CAH   FFA4EBH   000022H   BYTE   INSEG    CODE           ?PR?CCD_INIT?SEEKFREE_TSL1401
FFA4ECH   FFA50CH   000021H   BYTE   INSEG    CODE           ?PR?DL1B_SCCB_WAITACK?SEEKFREE_DL1B
FFA50DH   FFA52BH   00001FH   BYTE   INSEG    CODE           ?PR?MAX?CONTROL
FFA52CH   FFA545H   00001AH   BYTE   INSEG    CODE           ?PR?BLUETOOTH_CH9141_UART_CALLBACK?SEEKFREE_BLUETOOTH_CH91
                                                             -41
FFA546H   FFA55FH   00001AH   BYTE   INSEG    CODE           ?PR?IMU660RA_WRITE_REGISTER?SEEKFREE_IMU660RA
FFA560H   FFA579H   00001AH   BYTE   INSEG    CODE           ?PR?WIRELESS_UART_CALLBACK?SEEKFREE_WIRELESS
FFA57AH   FFA593H   00001AH   BYTE   INSEG    CODE           ?PR?UART3_ISR?ISR
FFA594H   FFA5ADH   00001AH   BYTE   INSEG    CODE           ?PR?UART4_ISR?ISR
L251 LINKER/LOCATER V4.66.93.0                                                        12/27/2024  03:02:31  PAGE 11


FFA5AEH   FFA5C7H   00001AH   BYTE   INSEG    CODE           ?PR?MEMSET?_?MEMSET
FFA5C8H   FFA5DDH   000016H   BYTE   INSEG    CODE           ?PR?DL1B_SIMIIC_STOP?SEEKFREE_DL1B
FFA5DEH   FFA5F2H   000015H   BYTE   INSEG    CODE           ?PR?LCD_WRITEINDEX?SEEKFREE_18TFT
FFA5F3H   FFA607H   000015H   BYTE   INSEG    CODE           ?PR?LCD_WRITEDATA?SEEKFREE_18TFT
FFA608H   FFA61BH   000014H   BYTE   INSEG    CODE           ?PR?CLOCK_INIT?BOARD
FFA61CH   FFA62EH   000013H   BYTE   INSEG    CODE           ?PR?DL1B_SIMIIC_START?SEEKFREE_DL1B
FFA62FH   FFA640H   000012H   BYTE   INSEG    CODE           ?PR?PUTCHAR?BOARD
FFA641H   FFA652H   000012H   BYTE   INSEG    CODE           ?PR?SPI_MOSI?ZF_SPI
FFA653H   FFA663H   000011H   BYTE   INSEG    CODE           ?PR?ICACHEON?BOARD
FFA664H   FFA66CH   000009H   BYTE   INSEG    CODE           ?PR?GET_TARGET_YAW?INERTIA
FFA66DH   FFA673H   000007H   BYTE   UNIT     CODE           ?PR?FCHS?STC32F_FPMU
FFA674H   FFA679H   000006H   BYTE   UNIT     CODE           ?PR?CASTF?STC32F_FPMU
FFA67AH   FFA67FH   000006H   BYTE   UNIT     CODE           ?PR?FCASTC?STC32F_FPMU
FFA680H   FFA685H   000006H   BYTE   UNIT     CODE           ?PR?FCASTI?STC32F_FPMU
FFA686H   FFA689H   000004H   BYTE   INSEG    CODE           ?PR?TM2_ISR?ISR
FFA68AH   FFA68DH   000004H   BYTE   UNIT     CONST          ?CO?PRINTF
FFA68EH   FFB195H   000B08H   BYTE   UNIT     HCONST         ?C_INITEDATA
FFB196H   FFB210H   00007BH   BYTE   UNIT     HCONST         ?HC?CONTROL
FFB211H   FFB268H   000058H   BYTE   UNIT     HCONST         ?HC?ZF_PWM
FFB269H   FFB2B3H   00004BH   BYTE   UNIT     HCONST         ?HC?SEEKFREE_IMU963RA
FFB2B4H   FFB2E8H   000035H   BYTE   UNIT     HCONST         ?HC?SEEKFREE_ICM20602
FFB2E9H   FFB31CH   000034H   BYTE   UNIT     HCONST         ?HC?SEEKFREE_IMU660RA
FFB31DH   FFB332H   000016H   BYTE   UNIT     HCONST         ?HC?SEEKFREE_MPU6050
FFB333H   FFB345H   000013H   BYTE   UNIT     HCONST         ?HC?SEEKFREE_DL1A
FFB346H   FFB355H   000010H   BYTE   UNIT     HCONST         ?HC?SEEKFREE_FUNCTION
FFB356H   FFB35FH   00000AH   BYTE   UNIT     HCONST         ?HC?SEEKFREE_OLED
FFB360H   FFB367H   000008H   BYTE   UNIT     HCONST         ?HC?A_VOFA
FFB368H   FFB36DH   000006H   BYTE   UNIT     HCONST         ?HC?SEEKFREE_18TFT
FFB36EH   FFB373H   000006H   BYTE   UNIT     HCONST         ?HC?SEEKFREE_IPS114_SPI

* * * * * * * * *   R E M O V E D     S E G M E N T S   * * * * * * * *
   *DEL*:           000016H   BYTE   INSEG    CODE           ?PR?DISALBE_ICACHE?BOARD
   *DEL*:           000017H   BYTE   INSEG    CODE           ?PR?ENALBE_ICACHE?BOARD
   *DEL*:           000004H   BYTE   INSEG    CODE           ?PR?DISABLEGLOBALIRQ?BOARD
   *DEL*:           000004H   BYTE   UNIT     CODE           ?PR?SQRT?STC32F_FPMU
   *DEL*:           000006H   BYTE   UNIT     CODE           ?PR?FXAM?STC32F_FPMU
   *DEL*:           000007H   BYTE   UNIT     CODE           ?PR?FABS?STC32F_FPMU
   *DEL*:           000004H   BYTE   UNIT     CODE           ?PR?SIN?STC32F_FPMU
   *DEL*:           000004H   BYTE   UNIT     CODE           ?PR?COS?STC32F_FPMU
   *DEL*:           000004H   BYTE   UNIT     CODE           ?PR?TAN?STC32F_FPMU
   *DEL*:           00000AH   BYTE   UNIT     CODE           ?PR?ATAN?STC32F_FPMU
   *DEL*:           000004H   BYTE   UNIT     CODE           ?PR?FCLEX?STC32F_FPMU
   *DEL*:           000004H   BYTE   UNIT     CODE           ?PR?FINIT?STC32F_FPMU
   *DEL*:           000006H   BYTE   UNIT     CODE           ?PR?FPSRR?STC32F_FPMU
   *DEL*:           000006H   BYTE   UNIT     CODE           ?PR?FPSRW?STC32F_FPMU
   *DEL*:           000006H   BYTE   UNIT     CODE           ?PR?FPCRR?STC32F_FPMU
   *DEL*:           000006H   BYTE   UNIT     CODE           ?PR?FPCRW?STC32F_FPMU
   *DEL*:           000033H   BYTE   INSEG    CODE           ?PR?DELAY_US?ZF_DELAY
   *DEL*:           00001AH   BYTE   INSEG    CODE           ?PR?IAP_SET_TPS?ZF_EEPROM
   *DEL*:           000015H   BYTE   INSEG    CODE           ?PR?EEPROM_TRIG?ZF_EEPROM
   *DEL*:           000029H   BYTE   INSEG    CODE           ?PR?IAP_ERASE_PAGE?ZF_EEPROM
   *DEL*:           000004H   BYTE   INSEG    CODE           ?PR?IAP_IDLE?ZF_EEPROM
   *DEL*:           00005FH   BYTE   INSEG    CODE           ?PR?IAP_READ_BYTES?ZF_EEPROM
   *DEL*:           000008H   BYTE   INSEG    CODE           ?PR?IAP_INIT?ZF_EEPROM
   *DEL*:           00005BH   BYTE   INSEG    CODE           ?PR?IAP_WRITE_BYTES?ZF_EEPROM
   *DEL*:           000012H   BYTE   INSEG    CODE           ?PR?IAP_GET_CMD_STATE?ZF_EEPROM
   *DEL*:           000066H   BYTE   INSEG    CODE           ?PR?EXIT_INIT?ZF_EXTI
   *DEL*:           000095H   BYTE   INSEG    CODE           ?PR?GPIO_PULL_SET?ZF_GPIO
   *DEL*:           000028H   BYTE   INSEG    CODE           ?PR?SEND_DATA?ZF_IIC
   *DEL*:           000037H   BYTE   INSEG    CODE           ?PR?IIC_CHANGE_PIN?ZF_IIC
   *DEL*:           00001CH   BYTE   INSEG    CODE           ?PR?RECV_DATA?ZF_IIC
   *DEL*:           000015H   BYTE   INSEG    CODE           ?PR?START?ZF_IIC
   *DEL*:           000057H   BYTE   INSEG    CODE           ?PR?WAIT?ZF_IIC
   *DEL*:           000021H   BYTE   INSEG    CODE           ?PR?SEND_ACK?ZF_IIC
   *DEL*:           000015H   BYTE   INSEG    CODE           ?PR?RECV_ACK?ZF_IIC
L251 LINKER/LOCATER V4.66.93.0                                                        12/27/2024  03:02:31  PAGE 12


   *DEL*:           000015H   BYTE   INSEG    CODE           ?PR?STOP?ZF_IIC
   *DEL*:           00001EH   BYTE   INSEG    CODE           ?PR?SEND_NAK?ZF_IIC
   *DEL*:           00007AH   BYTE   INSEG    CODE           ?PR?IIC_INIT?ZF_IIC
   *DEL*:           000099H   BYTE   INSEG    CODE           ?PR?IIC_READ_REG?ZF_IIC
   *DEL*:           0000D4H   BYTE   INSEG    CODE           ?PR?IIC_READ_REG_BYTES?ZF_IIC
   *DEL*:           00007CH   BYTE   INSEG    CODE           ?PR?IIC_WRITE_REG?ZF_IIC
   *DEL*:           000035H   BYTE   INSEG    CODE           ?PR?IIC_DELAY_US?ZF_IIC
   *DEL*:           0000B9H   BYTE   INSEG    CODE           ?PR?NVIC_SETPRIORITY?ZF_NVIC
   *DEL*:           0001ABH   BYTE   INSEG    CODE           ?PR?PWM_FREQ?ZF_PWM
   *DEL*:           000026H   BYTE   INSEG    CODE           ?PR?SPI_CHANGE_MODE?ZF_SPI
   *DEL*:           0000CCH   BYTE   INSEG    CODE           ?PR?SPI_CHANGE_PIN?ZF_SPI
   *DEL*:           000033H   BYTE   INSEG    CODE           ?PR?UART_PUTBUFF?ZF_UART
   *DEL*:           00002BH   BYTE   INSEG    CODE           ?PR?UART_PUTSTR?ZF_UART
   *DEL*:           0003ACH   BYTE   INSEG    CODE           ?PR?FIFO_READ_BUFFER?ZF_FIFO
   *DEL*:           00013BH   BYTE   INSEG    CODE           ?PR?FIFO_WRITE_ELEMENT?ZF_FIFO
   *DEL*:           000434H   BYTE   INSEG    CODE           ?PR?FIFO_READ_TAIL_BUFFER?ZF_FIFO
   *DEL*:           0000EAH   BYTE   INSEG    CODE           ?PR?FIFO_CLEAR?ZF_FIFO
   *DEL*:           000070H   BYTE   INSEG    CODE           ?PR?FIFO_END_OFFSET?ZF_FIFO
   *DEL*:           000025H   BYTE   INSEG    CODE           ?PR?FIFO_USED?ZF_FIFO
   *DEL*:           00018BH   BYTE   INSEG    CODE           ?PR?FIFO_READ_ELEMENT?ZF_FIFO
   *DEL*:           0000CEH   BYTE   INSEG    CODE           ?PR?LCD_SHOWINT32_SIMSPI?SEEKFREE_18TFT
   *DEL*:           000119H   BYTE   INSEG    CODE           ?PR?LCD_SHOWINT16_SIMSPI?SEEKFREE_18TFT
   *DEL*:           0000CEH   BYTE   INSEG    CODE           ?PR?LCD_SHOWINT32?SEEKFREE_18TFT
   *DEL*:           000119H   BYTE   INSEG    CODE           ?PR?LCD_SHOWINT16?SEEKFREE_18TFT
   *DEL*:           000057H   BYTE   INSEG    CODE           ?PR?LCD_CLEAR_SIMSPI?SEEKFREE_18TFT
   *DEL*:           00005DH   BYTE   INSEG    CODE           ?PR?LCD_SHOWSTR_SIMSPI?SEEKFREE_18TFT
   *DEL*:           00004CH   BYTE   INSEG    CODE           ?PR?LCD_WRITEINDEX_SIMSPI?SEEKFREE_18TFT
   *DEL*:           00004CH   BYTE   INSEG    CODE           ?PR?LCD_WRITEDATA_SIMSPI?SEEKFREE_18TFT
   *DEL*:           000055H   BYTE   INSEG    CODE           ?PR?LCD_WRITEDATA_16BIT_SIMSPI?SEEKFREE_18TFT
   *DEL*:           000064H   BYTE   INSEG    CODE           ?PR?LCD_SET_REGION_SIMSPI?SEEKFREE_18TFT
   *DEL*:           0001FDH   BYTE   INSEG    CODE           ?PR?LCD_INIT_SIMSPI?SEEKFREE_18TFT
   *DEL*:           0000ECH   BYTE   INSEG    CODE           ?PR?SHOWIMAGE?SEEKFREE_18TFT
   *DEL*:           0000A9H   BYTE   INSEG    CODE           ?PR?LCD_SHOWUINT8_SIMSPI?SEEKFREE_18TFT
   *DEL*:           0000A9H   BYTE   INSEG    CODE           ?PR?LCD_SHOWUINT8?SEEKFREE_18TFT
   *DEL*:           0000EBH   BYTE   INSEG    CODE           ?PR?LCD_SHOWINT8_SIMSPI?SEEKFREE_18TFT
   *DEL*:           0000EBH   BYTE   INSEG    CODE           ?PR?LCD_SHOWINT8?SEEKFREE_18TFT
   *DEL*:           000145H   BYTE   INSEG    CODE           ?PR?LCD_SHOWFLOAT_SIMSPI?SEEKFREE_18TFT
   *DEL*:           000023H   BYTE   INSEG    CODE           ?PR?LCD_DRAWPOINT_SIMSPI?SEEKFREE_18TFT
   *DEL*:           000023H   BYTE   INSEG    CODE           ?PR?LCD_DRAWPOINT?SEEKFREE_18TFT
   *DEL*:           0000BFH   BYTE   INSEG    CODE           ?PR?LCD_SHOWCHAR_SIMSPI?SEEKFREE_18TFT
   *DEL*:           0000CDH   BYTE   INSEG    CODE           ?PR?LCD_SHOWUINT16_SIMSPI?SEEKFREE_18TFT
   *DEL*:           000013H   BYTE   INSEG    CODE           ?PR?ENCODER_SELF4_CHECK?SEEKFREE_ABSOLUTE_ENCODER
   *DEL*:           000013H   BYTE   INSEG    CODE           ?PR?ENCODER_SELF5_CHECK?SEEKFREE_ABSOLUTE_ENCODER
   *DEL*:           000042H   BYTE   INSEG    CODE           ?PR?ENCODER_SPI_R_REG_BYTE?SEEKFREE_ABSOLUTE_ENCODER
   *DEL*:           00000AH   BYTE   INSEG    CODE           ?PR?ENCODER_DELAY_US?SEEKFREE_ABSOLUTE_ENCODER
   *DEL*:           000053H   BYTE   INSEG    CODE           ?PR?ENCODER_SPI_W_REG_BYTE?SEEKFREE_ABSOLUTE_ENCODER
   *DEL*:           00002DH   BYTE   INSEG    CODE           ?PR?SIMSPI_R_REG_BYTE?SEEKFREE_ABSOLUTE_ENCODER
   *DEL*:           000029H   BYTE   INSEG    CODE           ?PR?SIMSPI_W_REG_BYTE?SEEKFREE_ABSOLUTE_ENCODER
   *DEL*:           000030H   BYTE   INSEG    CODE           ?PR?ENCODER_INIT_SPI?SEEKFREE_ABSOLUTE_ENCODER
   *DEL*:           00000CH   BYTE   INSEG    CODE           ?PR?SPI_WR_BYTE?SEEKFREE_ABSOLUTE_ENCODER
   *DEL*:           000032H   BYTE   INSEG    CODE           ?PR?SET_ZERO_POSITION_SIMSPI?SEEKFREE_ABSOLUTE_ENCODER
   *DEL*:           000035H   BYTE   INSEG    CODE           ?PR?ENCODER_ANGLE_SIMSPI?SEEKFREE_ABSOLUTE_ENCODER
   *DEL*:           00002DH   BYTE   INSEG    CODE           ?PR?SPI_R_REG_BYTE?SEEKFREE_ABSOLUTE_ENCODER
   *DEL*:           000029H   BYTE   INSEG    CODE           ?PR?SPI_W_REG_BYTE?SEEKFREE_ABSOLUTE_ENCODER
   *DEL*:           000042H   BYTE   INSEG    CODE           ?PR?ENCODER_SIMSPI_R_REG_BYTE?SEEKFREE_ABSOLUTE_ENCODER
   *DEL*:           000053H   BYTE   INSEG    CODE           ?PR?ENCODER_SIMSPI_W_REG_BYTE?SEEKFREE_ABSOLUTE_ENCODER
   *DEL*:           000010H   BYTE   INSEG    CODE           ?PR?ENCODER_INIT_SIMSPI?SEEKFREE_ABSOLUTE_ENCODER
   *DEL*:           000032H   BYTE   INSEG    CODE           ?PR?SET_ZERO_POSITION_SPI?SEEKFREE_ABSOLUTE_ENCODER
   *DEL*:           000053H   BYTE   INSEG    CODE           ?PR?SIMSPI_WR_BYTE?SEEKFREE_ABSOLUTE_ENCODER
   *DEL*:           000035H   BYTE   INSEG    CODE           ?PR?ENCODER_ANGLE_SPI?SEEKFREE_ABSOLUTE_ENCODER
   *DEL*:           00002EH   BYTE   INSEG    CODE           ?PR?BLUETOOTH_CH9141_READ_BUFF?SEEKFREE_BLUETOOTH_CH9141
   *DEL*:           0000D4H   BYTE   INSEG    CODE           ?PR?BLUETOOTH_CH9141_SEND_BUFF?SEEKFREE_BLUETOOTH_CH9141
   *DEL*:           000045H   BYTE   INSEG    CODE           ?PR?BLUETOOTH_CH9141_INIT?SEEKFREE_BLUETOOTH_CH9141
   *DEL*:           000028H   BYTE   INSEG    CODE           ?PR?DL1A_SIMIIC_SENDACK?SEEKFREE_DL1A
   *DEL*:           000051H   BYTE   INSEG    CODE           ?PR?DL1A_TIMEOUT_MICROSECONDS_TO_MCLKS?SEEKFREE_DL1A
L251 LINKER/LOCATER V4.66.93.0                                                        12/27/2024  03:02:31  PAGE 13


   *DEL*:           000053H   BYTE   INSEG    CODE           ?PR?DL1A_TIMEOUT_MCLKS_TO_MICROSECONDS?SEEKFREE_DL1A
   *DEL*:           00003EH   BYTE   INSEG    CODE           ?PR?DL1A_SET_SIGNAL_RATE_LIMIT?SEEKFREE_DL1A
   *DEL*:           00006AH   BYTE   INSEG    CODE           ?PR?DL1A_READ_CH?SEEKFREE_DL1A
   *DEL*:           00002AH   BYTE   INSEG    CODE           ?PR?DL1A_DECODE_TIMEOUT?SEEKFREE_DL1A
   *DEL*:           000049H   BYTE   INSEG    CODE           ?PR?DL1A_SEND_CH?SEEKFREE_DL1A
   *DEL*:           000195H   BYTE   INSEG    CODE           ?PR?DL1A_GET_SPAD_INFO?SEEKFREE_DL1A
   *DEL*:           00007FH   BYTE   INSEG    CODE           ?PR?DL1A_ENCODE_TIMEOUT?SEEKFREE_DL1A
   *DEL*:           00008EH   BYTE   INSEG    CODE           ?PR?DL1A_GET_SEQUENCE_STEP_ENABLES?SEEKFREE_DL1A
   *DEL*:           000021H   BYTE   INSEG    CODE           ?PR?DL1A_SCCB_WAITACK?SEEKFREE_DL1A
   *DEL*:           00006CH   BYTE   INSEG    CODE           ?PR?DL1A_GET_DISTANCE?SEEKFREE_DL1A
   *DEL*:           00001FH   BYTE   INSEG    CODE           ?PR?DL1A_SIMIIC_DELAY?SEEKFREE_DL1A
   *DEL*:           0000ABH   BYTE   INSEG    CODE           ?PR?DL1A_PERFORM_SINGLE_REF_CALIBRATION?SEEKFREE_DL1A
   *DEL*:           000169H   BYTE   INSEG    CODE           ?PR?DL1A_GET_SEQUENCE_STEP_TIMEOUTS?SEEKFREE_DL1A
   *DEL*:           000013H   BYTE   INSEG    CODE           ?PR?DL1A_SIMIIC_START?SEEKFREE_DL1A
   *DEL*:           000068H   BYTE   INSEG    CODE           ?PR?DL1A_SIMIIC_READ_REGS?SEEKFREE_DL1A
   *DEL*:           0000B6H   BYTE   INSEG    CODE           ?PR?DL1A_GET_MEASUREMENT_TIMING_BUDGET?SEEKFREE_DL1A
   *DEL*:           000042H   BYTE   INSEG    CODE           ?PR?DL1A_SIMIIC_WRITE_DATS?SEEKFREE_DL1A
   *DEL*:           00003BH   BYTE   INSEG    CODE           ?PR?DL1A_SIMIIC_READ_REG?SEEKFREE_DL1A
   *DEL*:           000068H   BYTE   INSEG    CODE           ?PR?DL1A_SIMIIC_READ_REGS_1?SEEKFREE_DL1A
   *DEL*:           000149H   BYTE   INSEG    CODE           ?PR?DL1A_SET_MEASUREMENT_TIMING_BUDGET?SEEKFREE_DL1A
   *DEL*:           000016H   BYTE   INSEG    CODE           ?PR?DL1A_SIMIIC_STOP?SEEKFREE_DL1A
   *DEL*:           00002AH   BYTE   INSEG    CODE           ?PR?DL1A_SIMIIC_WRITE_REG?SEEKFREE_DL1A
   *DEL*:           0006AEH   BYTE   INSEG    CODE           ?PR?DL1A_INIT?SEEKFREE_DL1A
   *DEL*:           00007AH   BYTE   INSEG    CODE           ?PR?DL1A_GET_VCSEL_PULSE_PERIOD?SEEKFREE_DL1A
   *DEL*:           000287H   BYTE   INSEG    CODE           ?PR?FUNC_DOUBLE_TO_STR?SEEKFREE_FUNCTION
   *DEL*:           000178H   BYTE   INSEG    CODE           ?PR?FUNC_STR_TO_DOUBLE?SEEKFREE_FUNCTION
   *DEL*:           000287H   BYTE   INSEG    CODE           ?PR?FUNC_FLOAT_TO_STR?SEEKFREE_FUNCTION
   *DEL*:           000178H   BYTE   INSEG    CODE           ?PR?FUNC_STR_TO_FLOAT?SEEKFREE_FUNCTION
   *DEL*:           000019H   BYTE   INSEG    CODE           ?PR?FUNC_SOFT_DELAY?SEEKFREE_FUNCTION
   *DEL*:           0000A9H   BYTE   INSEG    CODE           ?PR?FUNC_UINT_TO_STR?SEEKFREE_FUNCTION
   *DEL*:           00005FH   BYTE   INSEG    CODE           ?PR?FUNC_STR_TO_UINT?SEEKFREE_FUNCTION
   *DEL*:           0000E3H   BYTE   INSEG    CODE           ?PR?FUNC_HEX_TO_STR?SEEKFREE_FUNCTION
   *DEL*:           000137H   BYTE   INSEG    CODE           ?PR?FUNC_STR_TO_HEX?SEEKFREE_FUNCTION
   *DEL*:           0000FFH   BYTE   INSEG    CODE           ?PR?FUNC_INT_TO_STR?SEEKFREE_FUNCTION
   *DEL*:           0000B6H   BYTE   INSEG    CODE           ?PR?FUNC_STR_TO_INT?SEEKFREE_FUNCTION
   *DEL*:           00004FH   BYTE   INSEG    CODE           ?PR?FUNC_GET_GREATEST_COMMON_DIVISOR?SEEKFREE_FUNCTION
   *DEL*:           00001EH   BYTE   INSEG    CODE           ?PR?ICM20602_READ_REGISTER?SEEKFREE_ICM20602
   *DEL*:           00008DH   BYTE   INSEG    CODE           ?PR?ICM20602_GYRO_TRANSITION?SEEKFREE_ICM20602
   *DEL*:           00001AH   BYTE   INSEG    CODE           ?PR?ICM20602_WRITE_REGISTER?SEEKFREE_ICM20602
   *DEL*:           000059H   BYTE   INSEG    CODE           ?PR?ICM20602_SIMSPI_WR_BYTE?SEEKFREE_ICM20602
   *DEL*:           00004EH   BYTE   INSEG    CODE           ?PR?ICM20602_SELF_CHECK?SEEKFREE_ICM20602
   *DEL*:           000051H   BYTE   INSEG    CODE           ?PR?ICM20602_SIMSPI_R_REG_BYTES?SEEKFREE_ICM20602
   *DEL*:           000027H   BYTE   INSEG    CODE           ?PR?ICM20602_SIMSPI_R_REG_BYTE?SEEKFREE_ICM20602
   *DEL*:           00001BH   BYTE   INSEG    CODE           ?PR?ICM20602_SIMSPI_W_REG_BYTE?SEEKFREE_ICM20602
   *DEL*:           0000C2H   BYTE   INSEG    CODE           ?PR?ICM20602_INIT?SEEKFREE_ICM20602
   *DEL*:           000050H   BYTE   INSEG    CODE           ?PR?ICM20602_GET_ACC?SEEKFREE_ICM20602
   *DEL*:           000089H   BYTE   INSEG    CODE           ?PR?ICM20602_ACC_TRANSITION?SEEKFREE_ICM20602
   *DEL*:           000026H   BYTE   INSEG    CODE           ?PR?ICM20602_READ_REGISTERS?SEEKFREE_ICM20602
   *DEL*:           000050H   BYTE   INSEG    CODE           ?PR?ICM20602_GET_GYRO?SEEKFREE_ICM20602
   *DEL*:           000050H   BYTE   INSEG    CODE           ?PR?IMU660RA_GET_ACC?SEEKFREE_IMU660RA
   *DEL*:           00007CH   BYTE   INSEG    CODE           ?PR?IMU660RA_ACC_TRANSITION?SEEKFREE_IMU660RA
   *DEL*:           00008DH   BYTE   INSEG    CODE           ?PR?IMU963RA_ACC_TRANSITION?SEEKFREE_IMU963RA
   *DEL*:           000050H   BYTE   INSEG    CODE           ?PR?IMU963RA_GET_GYRO?SEEKFREE_IMU963RA
   *DEL*:           000051H   BYTE   INSEG    CODE           ?PR?IMU963RA_MAG_TRANSITION?SEEKFREE_IMU963RA
   *DEL*:           0000D2H   BYTE   INSEG    CODE           ?PR?IMU963RA_GYRO_TRANSITION?SEEKFREE_IMU963RA
   *DEL*:           000059H   BYTE   INSEG    CODE           ?PR?IMU963RA_SIMSPI_WR_BYTE?SEEKFREE_IMU963RA
   *DEL*:           00006CH   BYTE   INSEG    CODE           ?PR?IMU963RA_READ_MAG_REGISTER?SEEKFREE_IMU963RA
   *DEL*:           00003AH   BYTE   INSEG    CODE           ?PR?IMU963RA_CONNECT_MAG?SEEKFREE_IMU963RA
   *DEL*:           000026H   BYTE   INSEG    CODE           ?PR?IMU963RA_READ_ACC_GYRO_REGISTERS?SEEKFREE_IMU963RA
   *DEL*:           00007FH   BYTE   INSEG    CODE           ?PR?IMU963RA_WRITE_MAG_REGISTER?SEEKFREE_IMU963RA
   *DEL*:           000023H   BYTE   INSEG    CODE           ?PR?IMU963RA_READ_ACC_GYRO_REGISTER?SEEKFREE_IMU963RA
   *DEL*:           00004BH   BYTE   INSEG    CODE           ?PR?IMU963RA_SIMSPI_R_REG_BYTES?SEEKFREE_IMU963RA
   *DEL*:           00002DH   BYTE   INSEG    CODE           ?PR?IMU963RA_SIMSPI_R_REG_BYTE?SEEKFREE_IMU963RA
   *DEL*:           000051H   BYTE   INSEG    CODE           ?PR?IMU963RA_MAG_SELF_CHECK?SEEKFREE_IMU963RA
   *DEL*:           00001AH   BYTE   INSEG    CODE           ?PR?IMU963RA_WRITE_ACC_GYRO_REGISTER?SEEKFREE_IMU963RA
L251 LINKER/LOCATER V4.66.93.0                                                        12/27/2024  03:02:31  PAGE 14


   *DEL*:           000021H   BYTE   INSEG    CODE           ?PR?IMU963RA_SIMSPI_W_REG_BYTE?SEEKFREE_IMU963RA
   *DEL*:           00011DH   BYTE   INSEG    CODE           ?PR?IMU963RA_INIT?SEEKFREE_IMU963RA
   *DEL*:           00004EH   BYTE   INSEG    CODE           ?PR?IMU963RA_ACC_GYRO_SELF_CHECK?SEEKFREE_IMU963RA
   *DEL*:           000050H   BYTE   INSEG    CODE           ?PR?IMU963RA_GET_ACC?SEEKFREE_IMU963RA
   *DEL*:           00006BH   BYTE   INSEG    CODE           ?PR?IMU963RA_GET_MAG?SEEKFREE_IMU963RA
   *DEL*:           0000A9H   BYTE   INSEG    CODE           ?PR?IPS114_SHOWUINT8_SIMSPI?SEEKFREE_IPS114_SPI
   *DEL*:           0000A5H   BYTE   INSEG    CODE           ?PR?IPS114_SHOWUINT8?SEEKFREE_IPS114_SPI
   *DEL*:           0000EBH   BYTE   INSEG    CODE           ?PR?IPS114_SHOWINT8_SIMSPI?SEEKFREE_IPS114_SPI
   *DEL*:           0000E7H   BYTE   INSEG    CODE           ?PR?IPS114_SHOWINT8?SEEKFREE_IPS114_SPI
   *DEL*:           00002AH   BYTE   INSEG    CODE           ?PR?IPS114_WRITEDATA_16BIT?SEEKFREE_IPS114_SPI
   *DEL*:           000145H   BYTE   INSEG    CODE           ?PR?IPS114_SHOWFLOAT_SIMSPI?SEEKFREE_IPS114_SPI
   *DEL*:           000023H   BYTE   INSEG    CODE           ?PR?IPS114_DRAWPOINT_SIMSPI?SEEKFREE_IPS114_SPI
   *DEL*:           000145H   BYTE   INSEG    CODE           ?PR?IPS114_SHOWFLOAT?SEEKFREE_IPS114_SPI
   *DEL*:           000023H   BYTE   INSEG    CODE           ?PR?IPS114_DRAWPOINT?SEEKFREE_IPS114_SPI
   *DEL*:           0000BFH   BYTE   INSEG    CODE           ?PR?IPS114_SHOWCHAR_SIMSPI?SEEKFREE_IPS114_SPI
   *DEL*:           0000BFH   BYTE   INSEG    CODE           ?PR?IPS114_SHOWCHAR?SEEKFREE_IPS114_SPI
   *DEL*:           0000CDH   BYTE   INSEG    CODE           ?PR?IPS114_SHOWUINT16_SIMSPI?SEEKFREE_IPS114_SPI
   *DEL*:           0000CDH   BYTE   INSEG    CODE           ?PR?IPS114_SHOWUINT16?SEEKFREE_IPS114_SPI
   *DEL*:           0000CEH   BYTE   INSEG    CODE           ?PR?IPS114_SHOWINT32_SIMSPI?SEEKFREE_IPS114_SPI
   *DEL*:           000119H   BYTE   INSEG    CODE           ?PR?IPS114_SHOWINT16_SIMSPI?SEEKFREE_IPS114_SPI
   *DEL*:           0000CEH   BYTE   INSEG    CODE           ?PR?IPS114_SHOWINT32?SEEKFREE_IPS114_SPI
   *DEL*:           000115H   BYTE   INSEG    CODE           ?PR?IPS114_SHOWINT16?SEEKFREE_IPS114_SPI
   *DEL*:           00005FH   BYTE   INSEG    CODE           ?PR?IPS114_CLEAR_SIMSPI?SEEKFREE_IPS114_SPI
   *DEL*:           00005FH   BYTE   INSEG    CODE           ?PR?IPS114_CLEAR?SEEKFREE_IPS114_SPI
   *DEL*:           000055H   BYTE   INSEG    CODE           ?PR?IPS114_WRITEDATAI_16BIT_SIMSPI?SEEKFREE_IPS114_SPI
   *DEL*:           00005DH   BYTE   INSEG    CODE           ?PR?IPS114_SHOWSTR_SIMSPI?SEEKFREE_IPS114_SPI
   *DEL*:           00005DH   BYTE   INSEG    CODE           ?PR?IPS114_SHOWSTR?SEEKFREE_IPS114_SPI
   *DEL*:           00004CH   BYTE   INSEG    CODE           ?PR?IPS114_WRITEINDEX_SIMSPI?SEEKFREE_IPS114_SPI
   *DEL*:           00004CH   BYTE   INSEG    CODE           ?PR?IPS114_WRITEDATA_SIMSPI?SEEKFREE_IPS114_SPI
   *DEL*:           000015H   BYTE   INSEG    CODE           ?PR?IPS114_WRITEINDEX?SEEKFREE_IPS114_SPI
   *DEL*:           000015H   BYTE   INSEG    CODE           ?PR?IPS114_WRITEDATA?SEEKFREE_IPS114_SPI
   *DEL*:           000054H   BYTE   INSEG    CODE           ?PR?IPS114_SET_REGION_SIMSPI?SEEKFREE_IPS114_SPI
   *DEL*:           000154H   BYTE   INSEG    CODE           ?PR?IPS114_INIT_SIMSPI?SEEKFREE_IPS114_SPI
   *DEL*:           000054H   BYTE   INSEG    CODE           ?PR?IPS114_SET_REGION?SEEKFREE_IPS114_SPI
   *DEL*:           000176H   BYTE   INSEG    CODE           ?PR?IPS114_INIT?SEEKFREE_IPS114_SPI
   *DEL*:           0000CCH   BYTE   INSEG    CODE           ?PR?IPS200_SHOW_FLOAT?SEEKFREE_IPS200_SPI
   *DEL*:           00002DH   BYTE   INSEG    CODE           ?PR?IPS200_DRAW_POINT?SEEKFREE_IPS200_SPI
   *DEL*:           000093H   BYTE   INSEG    CODE           ?PR?IPS200_SHOW_STRING?SEEKFREE_IPS200_SPI
   *DEL*:           0001F1H   BYTE   INSEG    CODE           ?PR?IPS200_SHOW_CHAR?SEEKFREE_IPS200_SPI
   *DEL*:           000015H   BYTE   INSEG    CODE           ?PR?IPS200_SET_COLOR?SEEKFREE_IPS200_SPI
   *DEL*:           000132H   BYTE   INSEG    CODE           ?PR?IPS200_SHOW_WAVE?SEEKFREE_IPS200_SPI
   *DEL*:           000021H   BYTE   INSEG    CODE           ?PR?IPS200_WRITE_16BIT_DATA_SPI?SEEKFREE_IPS200_SPI
   *DEL*:           0001C6H   BYTE   INSEG    CODE           ?PR?IPS200_INIT_SPI?SEEKFREE_IPS200_SPI
   *DEL*:           000095H   BYTE   INSEG    CODE           ?PR?IPS200_SHOW_UINT?SEEKFREE_IPS200_SPI
   *DEL*:           000009H   BYTE   INSEG    CODE           ?PR?IPS200_SET_FONT?SEEKFREE_IPS200_SPI
   *DEL*:           000037H   BYTE   INSEG    CODE           ?PR?IPS200_SET_DIR?SEEKFREE_IPS200_SPI
   *DEL*:           00009BH   BYTE   INSEG    CODE           ?PR?IPS200_SHOW_INT?SEEKFREE_IPS200_SPI
   *DEL*:           00001EH   BYTE   INSEG    CODE           ?PR?IPS200_WRITE_COMMAND?SEEKFREE_IPS200_SPI
   *DEL*:           000015H   BYTE   INSEG    CODE           ?PR?IPS200_WRITE_8BIT_DATA?SEEKFREE_IPS200_SPI
   *DEL*:           000163H   BYTE   INSEG    CODE           ?PR?IPS200_SHOW_CHINESE?SEEKFREE_IPS200_SPI
   *DEL*:           00006DH   BYTE   INSEG    CODE           ?PR?IPS200_CLEAR?SEEKFREE_IPS200_SPI
   *DEL*:           000008H   BYTE   INSEG    CODE           ?PR?IPS200_WRITE_8BIT_DATA_SPI?SEEKFREE_IPS200_SPI
   *DEL*:           000015H   BYTE   INSEG    CODE           ?PR?IPS200_WRITE_16BIT_DATA?SEEKFREE_IPS200_SPI
   *DEL*:           000071H   BYTE   INSEG    CODE           ?PR?IPS200_FULL?SEEKFREE_IPS200_SPI
   *DEL*:           00003CH   BYTE   INSEG    CODE           ?PR?IPS200_SET_REGION?SEEKFREE_IPS200_SPI
   *DEL*:           0001BEH   BYTE   INSEG    CODE           ?PR?IPS200_DRAW_LINE?SEEKFREE_IPS200_SPI
   *DEL*:           000013H   BYTE   INSEG    CODE           ?PR?MPU6050_SIMIIC_START?SEEKFREE_MPU6050
   *DEL*:           00006CH   BYTE   INSEG    CODE           ?PR?MPU6050_SIMIIC_READ_REGS?SEEKFREE_MPU6050
   *DEL*:           00003BH   BYTE   INSEG    CODE           ?PR?MPU6050_SIMIIC_READ_REG?SEEKFREE_MPU6050
   *DEL*:           000016H   BYTE   INSEG    CODE           ?PR?MPU6050_SIMIIC_STOP?SEEKFREE_MPU6050
   *DEL*:           00002AH   BYTE   INSEG    CODE           ?PR?MPU6050_SIMIIC_WRITE_REG?SEEKFREE_MPU6050
   *DEL*:           000060H   BYTE   INSEG    CODE           ?PR?MPU6050_INIT?SEEKFREE_MPU6050
   *DEL*:           000033H   BYTE   INSEG    CODE           ?PR?MPU6050_SELF1_CHECK?SEEKFREE_MPU6050
   *DEL*:           000028H   BYTE   INSEG    CODE           ?PR?MPU6050_SIMIIC_SENDACK?SEEKFREE_MPU6050
   *DEL*:           00006AH   BYTE   INSEG    CODE           ?PR?MPU6050_READ_CH?SEEKFREE_MPU6050
L251 LINKER/LOCATER V4.66.93.0                                                        12/27/2024  03:02:31  PAGE 15


   *DEL*:           000049H   BYTE   INSEG    CODE           ?PR?MPU6050_SEND_CH?SEEKFREE_MPU6050
   *DEL*:           000052H   BYTE   INSEG    CODE           ?PR?MPU6050_GET_GYRO?SEEKFREE_MPU6050
   *DEL*:           000021H   BYTE   INSEG    CODE           ?PR?MPU6050_SCCB_WAITACK?SEEKFREE_MPU6050
   *DEL*:           000052H   BYTE   INSEG    CODE           ?PR?MPU6050_GET_ACCDATA?SEEKFREE_MPU6050
   *DEL*:           00001DH   BYTE   INSEG    CODE           ?PR?MPU6050_SIMIIC_DELAY?SEEKFREE_MPU6050
   *DEL*:           000047H   BYTE   INSEG    CODE           ?PR?OLED_PUTPIXEL?SEEKFREE_OLED
   *DEL*:           00006FH   BYTE   INSEG    CODE           ?PR?OLED_HEXASCII_SPI?SEEKFREE_OLED
   *DEL*:           000035H   BYTE   INSEG    CODE           ?PR?OLED_SET_POS?SEEKFREE_OLED
   *DEL*:           00044DH   BYTE   INSEG    CODE           ?PR?OLED_DIS_BMP_SPI?SEEKFREE_OLED
   *DEL*:           000145H   BYTE   INSEG    CODE           ?PR?OLED_PRINTF_FLOAT?SEEKFREE_OLED
   *DEL*:           000121H   BYTE   INSEG    CODE           ?PR?OLED_P8X16STR_SPI?SEEKFREE_OLED
   *DEL*:           000041H   BYTE   INSEG    CODE           ?PR?OLED_CLRPIXEL_SPI?SEEKFREE_OLED
   *DEL*:           00004CH   BYTE   INSEG    CODE           ?PR?OLED_WRCMD?SEEKFREE_OLED
   *DEL*:           0000C0H   BYTE   INSEG    CODE           ?PR?OLED_PRINT_CHINESE_SPI?SEEKFREE_OLED
   *DEL*:           00004CH   BYTE   INSEG    CODE           ?PR?OLED_WRDAT?SEEKFREE_OLED
   *DEL*:           00005DH   BYTE   INSEG    CODE           ?PR?OLED_FILL?SEEKFREE_OLED
   *DEL*:           0000CEH   BYTE   INSEG    CODE           ?PR?OLED_PRINTF_INT32?SEEKFREE_OLED
   *DEL*:           000027H   BYTE   INSEG    CODE           ?PR?OLED_UINT16?SEEKFREE_OLED
   *DEL*:           000048H   BYTE   INSEG    CODE           ?PR?OLED_PUTPIXEL_SPI?SEEKFREE_OLED
   *DEL*:           000036H   BYTE   INSEG    CODE           ?PR?OLED_SET_POS_SPI?SEEKFREE_OLED
   *DEL*:           0000D1H   BYTE   INSEG    CODE           ?PR?OLED_P6X8STR?SEEKFREE_OLED
   *DEL*:           000073H   BYTE   INSEG    CODE           ?PR?OLED_INT16?SEEKFREE_OLED
   *DEL*:           0000A8H   BYTE   INSEG    CODE           ?PR?OLED_INIT?SEEKFREE_OLED
   *DEL*:           000145H   BYTE   INSEG    CODE           ?PR?OLED_PRINTF_FLOAT_SPI?SEEKFREE_OLED
   *DEL*:           000015H   BYTE   INSEG    CODE           ?PR?OLED_WRCMD_SPI?SEEKFREE_OLED
   *DEL*:           000015H   BYTE   INSEG    CODE           ?PR?OLED_WRDAT_SPI?SEEKFREE_OLED
   *DEL*:           00006FH   BYTE   INSEG    CODE           ?PR?OLED_HEXASCII?SEEKFREE_OLED
   *DEL*:           00005DH   BYTE   INSEG    CODE           ?PR?OLED_FILL_SPI?SEEKFREE_OLED
   *DEL*:           0000CEH   BYTE   INSEG    CODE           ?PR?OLED_PRINTF_INT32_SPI?SEEKFREE_OLED
   *DEL*:           000027H   BYTE   INSEG    CODE           ?PR?OLED_UINT16_SPI?SEEKFREE_OLED
   *DEL*:           0000D1H   BYTE   INSEG    CODE           ?PR?OLED_P6X8STR_SPI?SEEKFREE_OLED
   *DEL*:           000073H   BYTE   INSEG    CODE           ?PR?OLED_INT16_SPI?SEEKFREE_OLED
   *DEL*:           00046AH   BYTE   INSEG    CODE           ?PR?OLED_DIS_BMP?SEEKFREE_OLED
   *DEL*:           0000C5H   BYTE   INSEG    CODE           ?PR?OLED_INIT_SPI?SEEKFREE_OLED
   *DEL*:           000121H   BYTE   INSEG    CODE           ?PR?OLED_P8X16STR?SEEKFREE_OLED
   *DEL*:           000040H   BYTE   INSEG    CODE           ?PR?OLED_CLRPIXEL?SEEKFREE_OLED
   *DEL*:           0000C0H   BYTE   INSEG    CODE           ?PR?OLED_PRINT_CHINESE?SEEKFREE_OLED
   *DEL*:           00008AH   BYTE   INSEG    CODE           ?PR?CCD_SEND_DATA?SEEKFREE_TSL1401
   *DEL*:           00009AH   BYTE   INSEG    CODE           ?PR?CRC_CHECK?SEEKFREE_VIRSCO
   *DEL*:           0000DCH   BYTE   INSEG    CODE           ?PR?DATA_CONVERSION?SEEKFREE_VIRSCO
   *DEL*:           00002EH   BYTE   INSEG    CODE           ?PR?WIRELESS_UART_READ_BUFF?SEEKFREE_WIRELESS
   *DEL*:           000075H   BYTE   INSEG    CODE           ?PR?WIRELESS_UART_SEND_BUFF?SEEKFREE_WIRELESS
   *DEL*:           000021H   BYTE   INSEG    CODE           ?PR?WIRELESS_UART_SEND_BYTE?SEEKFREE_WIRELESS
   *DEL*:           000038H   BYTE   INSEG    CODE           ?PR?FILTER?CONTROL
   *DEL*:           000244H   BYTE   INSEG    CODE           ?PR?DISPLAY_0?CONTROL
   *DEL*:           000088H   BYTE   INSEG    CODE           ?PR?ELEMENT_SORT?CONTROL
   *DEL*:           000064H   BYTE   INSEG    CODE           ?PR?CALC_AVE?CONTROL
   *DEL*:           00005AH   BYTE   INSEG    CODE           ?PR?COUNTONES?CONTROL
   *DEL*:           00022AH   BYTE   INSEG    CODE           ?PR?INCPID_REALIZE?CONTROL
   *DEL*:           000081H   BYTE   INSEG    CODE           ?PR?PID_REALIZE_A?CONTROL
   *DEL*:           00007EH   BYTE   INSEG    CODE           ?PR?KEY_1?CONTROL
   *DEL*:           0000EDH   BYTE   INSEG    CODE           ?PR?LCD_SHOW_CCD?CONTROL
   *DEL*:           00006AH   BYTE   INSEG    CODE           ?PR?ADDTOARRAY?CONTROL
   *DEL*:           000085H   BYTE   INSEG    CODE           ?PR?VODKA_JUSTFLOAT_SEND?A_VOFA
   *DEL*:           000047H   BYTE   INSEG    CODE           ?PR?FLOAT_TO_BYTE?A_VOFA
   *DEL*:           0003F2H   BYTE   INSEG    CODE           ?PR?SEEKFREE_ASSISTANT_CAMERA_BOUNDARY_CONFIG?SEEKFREE_ASS
                                                             -ISTANT
   *DEL*:           000101H   BYTE   INSEG    CODE           ?PR?SEEKFREE_ASSISTANT_CAMERA_DOT_SEND?SEEKFREE_ASSISTANT
   *DEL*:           000138H   BYTE   INSEG    CODE           ?PR?SEEKFREE_ASSISTANT_OSCILLOSCOPE_SEND?SEEKFREE_ASSISTAN
                                                             -T
   *DEL*:           00001AH   BYTE   INSEG    CODE           ?PR?SEEKFREE_ASSISTANT_INIT?SEEKFREE_ASSISTANT
   *DEL*:           00003FH   BYTE   INSEG    CODE           ?PR?SEEKFREE_ASSISTANT_SUM?SEEKFREE_ASSISTANT
   *DEL*:           00003FH   BYTE   INSEG    CODE           ?PR?SEEKFREE_ASSISTANT_CAMERA_INFORMATION_CONFIG?SEEKFREE_
                                                             -ASSISTANT
   *DEL*:           000175H   BYTE   INSEG    CODE           ?PR?SEEKFREE_ASSISTANT_DATA_ANALYSIS?SEEKFREE_ASSISTANT
L251 LINKER/LOCATER V4.66.93.0                                                        12/27/2024  03:02:31  PAGE 16


   *DEL*:           000101H   BYTE   INSEG    CODE           ?PR?SEEKFREE_ASSISTANT_CAMERA_DATA_SEND?SEEKFREE_ASSISTANT
   *DEL*:           000034H   BYTE   INSEG    CODE           ?PR?SEEKFREE_ASSISTANT_CAMERA_SEND?SEEKFREE_ASSISTANT
   *DEL*:           00000EH   BYTE   INSEG    CODE           ?PR?STRLEN?_?STRLEN
   *DEL*:           00004FH   BYTE   INSEG    CODE           ?PR?REALLOC?REALLOC
   *DEL*:           000006H   BYTE   UNIT     EDATA          ?ED?REALLOC?REALLOC
   *DEL*:           000059H   BYTE   INSEG    CODE           ?PR?MALLOC?MALLOC
   *DEL*:           0000E7H   BYTE   INSEG    CODE           ?PR?FREE?FREE



OVERLAY MAP OF MODULE:   .\Out_File\SEEKFREE (board)


FUNCTION/MODULE                               EDATA_GROUP
--> CALLED FUNCTION/MODULE                    START  STOP
=========================================================
UART1_Isr/isr                                 ----- -----

*** NEW ROOT ********************************

UART2_Isr/isr                                 ----- -----
  +--> wireless_uart_callback/SEEKFREE_WIRELESS
  +--> bluetooth_ch9141_uart_callback/SEEKFREE_BLUETOOTH_CH9141

wireless_uart_callback/SEEKFREE_WIRELESS      ----- -----
  +--> fifo_write_buffer/zf_fifo

fifo_write_buffer/zf_fifo                     ----- -----
  +--> memcpy?_/memcpy
  +--> fifo_head_offset/zf_fifo

memcpy?_/memcpy                               ----- -----

fifo_head_offset/zf_fifo                      ----- -----

bluetooth_ch9141_uart_callback/SEEKFREE_+     ----- -----
... BLUETOOTH_CH9141
  +--> fifo_write_buffer/zf_fifo

*** NEW ROOT ********************************

UART3_Isr/isr                                 ----- -----

*** NEW ROOT ********************************

UART4_Isr/isr                                 ----- -----

*** NEW ROOT ********************************

INT0_Isr/isr                                  ----- -----

*** NEW ROOT ********************************

INT1_Isr/isr                                  ----- -----

*** NEW ROOT ********************************

INT2_Isr/isr                                  ----- -----

*** NEW ROOT ********************************

INT3_Isr/isr                                  ----- -----

*** NEW ROOT ********************************

L251 LINKER/LOCATER V4.66.93.0                                                        12/27/2024  03:02:31  PAGE 17


INT4_Isr/isr                                  ----- -----

*** NEW ROOT ********************************

TM0_Isr/isr                                   ----- -----

*** NEW ROOT ********************************

TM1_Isr/isr                                   ----- -----

*** NEW ROOT ********************************

TM2_Isr/isr                                   ----- -----

*** NEW ROOT ********************************

TM3_Isr/isr                                   ----- -----
  +--> ctimer_count_read/zf_tim
  +--> ctimer_count_clean/zf_tim
  +--> FCASTI/STC32F_FPMU
  +--> PosPID_realize/control
  +--> CASTF/STC32F_FPMU
  +--> pwm_duty/zf_pwm
  +--> FPCMP/STC32F_FPMU
  +--> FCASTC/STC32F_FPMU
  +--> FCHS/STC32F_FPMU
  +--> FPDIV/STC32F_FPMU
  +--> FPMUL/STC32F_FPMU
  +--> FPADD/STC32F_FPMU

ctimer_count_read/zf_tim                      ----- -----

ctimer_count_clean/zf_tim                     ----- -----

FCASTI/STC32F_FPMU                            ----- -----

PosPID_realize/control                        ----- -----
  +--> FPSUB/STC32F_FPMU
  +--> FPADD/STC32F_FPMU
  +--> FPCMP/STC32F_FPMU
  +--> FPMUL/STC32F_FPMU

FPSUB/STC32F_FPMU                             ----- -----

FPADD/STC32F_FPMU                             ----- -----

FPCMP/STC32F_FPMU                             ----- -----

FPMUL/STC32F_FPMU                             ----- -----

CASTF/STC32F_FPMU                             ----- -----

pwm_duty/zf_pwm                               ----- -----
  +--> FCASTL/STC32F_FPMU
  +--> FPDIV/STC32F_FPMU
  +--> FPMUL/STC32F_FPMU
  +--> CASTF/STC32F_FPMU

FCASTL/STC32F_FPMU                            ----- -----

FPDIV/STC32F_FPMU                             ----- -----

FCASTC/STC32F_FPMU                            ----- -----

FCHS/STC32F_FPMU                              ----- -----
L251 LINKER/LOCATER V4.66.93.0                                                        12/27/2024  03:02:31  PAGE 18



*** NEW ROOT ********************************

TM4_Isr/isr                                   ----- -----
  +--> dl1b_get_distance/SEEKFREE_DL1B
  +--> imu660ra_get_gyro/SEEKFREE_IMU660RA
  +--> imu660ra_gyro_transition/SEEKFREE_IMU660RA
  +--> FPMUL/STC32F_FPMU
  +--> FPADD/STC32F_FPMU
  +--> FPCMP/STC32F_FPMU
  +--> get_inertia_offset/inertia
  +--> ccd_collect/SEEKFREE_TSL1401
  +--> ccd_threshold/CCD_Driver
  +--> ccd_two_value/CCD_Driver
  +--> Bin_CCD_Filter/CCD_Driver
  +--> count_ones/control
  +--> get_target_yaw/inertia
  +--> cross_cricle_proccess/circle
  +--> yaw_error/inertia
  +--> get_mid_point1/CCD_Driver
  +--> get_mid_point2/CCD_Driver
  +--> get_offset/CCD_Driver

dl1b_get_distance/SEEKFREE_DL1B               ----- -----
  +--> dl1b_iic_transfer_8bit_array/SEEKFREE_DL1B

dl1b_iic_transfer_8bit_array/SEEKFREE_DL+     ----- -----
... 1B
  +--> dl1b_simiic_start/SEEKFREE_DL1B
  +--> dl1b_send_ch/SEEKFREE_DL1B
  +--> dl1b_read_ch/SEEKFREE_DL1B
  +--> dl1b_simiic_stop/SEEKFREE_DL1B

dl1b_simiic_start/SEEKFREE_DL1B               ----- -----
  +--> dl1b_simiic_delay/SEEKFREE_DL1B

dl1b_simiic_delay/SEEKFREE_DL1B               ----- -----

dl1b_send_ch/SEEKFREE_DL1B                    ----- -----
  +--> dl1b_simiic_delay/SEEKFREE_DL1B
  +--> dl1b_sccb_waitack/SEEKFREE_DL1B

dl1b_sccb_waitack/SEEKFREE_DL1B               ----- -----
  +--> dl1b_simiic_delay/SEEKFREE_DL1B

dl1b_read_ch/SEEKFREE_DL1B                    ----- -----
  +--> dl1b_simiic_delay/SEEKFREE_DL1B
  +--> dl1b_simiic_sendack/SEEKFREE_DL1B

dl1b_simiic_sendack/SEEKFREE_DL1B             ----- -----
  +--> dl1b_simiic_delay/SEEKFREE_DL1B

dl1b_simiic_stop/SEEKFREE_DL1B                ----- -----
  +--> dl1b_simiic_delay/SEEKFREE_DL1B

imu660ra_get_gyro/SEEKFREE_IMU660RA           ----- -----
  +--> imu660ra_read_registers/SEEKFREE_IMU660RA

imu660ra_read_registers/SEEKFREE_IMU660R+     ----- -----
... A
  +--> imu660ra_simspi_r_reg_bytes/SEEKFREE_IMU660RA

imu660ra_simspi_r_reg_bytes/SEEKFREE_IMU+     ----- -----
... 660RA
  +--> imu660ra_simspi_wr_byte/SEEKFREE_IMU660RA
L251 LINKER/LOCATER V4.66.93.0                                                        12/27/2024  03:02:31  PAGE 19



imu660ra_simspi_wr_byte/SEEKFREE_IMU660R+     ----- -----
... A

imu660ra_gyro_transition/SEEKFREE_IMU660+     ----- -----
... RA
  +--> FCASTI/STC32F_FPMU
  +--> FPDIV/STC32F_FPMU

get_inertia_offset/inertia                    ----- -----
  +--> FPSUB/STC32F_FPMU
  +--> CASTF/STC32F_FPMU

ccd_collect/SEEKFREE_TSL1401                  ----- -----
  +--> adc_once/zf_adc

adc_once/zf_adc                               ----- -----

ccd_threshold/CCD_Driver                      ----- -----

ccd_two_value/CCD_Driver                      ----- -----

Bin_CCD_Filter/CCD_Driver                     ----- -----

count_ones/control                            ----- -----
  +--> max/control

max/control                                   ----- -----

get_target_yaw/inertia                        ----- -----

cross_cricle_proccess/circle                  ----- -----
  +--> yaw_error/inertia
  +--> FPCMP/STC32F_FPMU
  +--> get_target_yaw_cross_cricle/inertia

yaw_error/inertia                             ----- -----
  +--> FPSUB/STC32F_FPMU
  +--> FPCMP/STC32F_FPMU
  +--> FPADD/STC32F_FPMU

get_target_yaw_cross_cricle/inertia           ----- -----
  +--> FPSUB/STC32F_FPMU
  +--> FPADD/STC32F_FPMU
  +--> FPCMP/STC32F_FPMU

get_mid_point1/CCD_Driver                     ----- -----
  +--> myabs/CCD_Driver

myabs/CCD_Driver                              ----- -----

get_mid_point2/CCD_Driver                     ----- -----
  +--> cricle_proccess/circle
  +--> myabs/CCD_Driver

cricle_proccess/circle                        ----- -----
  +--> yaw_error/inertia
  +--> FPCMP/STC32F_FPMU
  +--> myabs/CCD_Driver

get_offset/CCD_Driver                         ----- -----
  +--> FCASTC/STC32F_FPMU
  +--> FPMUL/STC32F_FPMU
  +--> FPADD/STC32F_FPMU
  +--> CASTF/STC32F_FPMU
L251 LINKER/LOCATER V4.66.93.0                                                        12/27/2024  03:02:31  PAGE 20


  +--> KP_get/control
  +--> FCASTL/STC32F_FPMU
  +--> FCASTI/STC32F_FPMU
  +--> count_ones/control
  +--> get_target_yaw/inertia
  +--> zebra_stop/CCD_Driver

KP_get/control                                ----- -----
  +--> FCASTC/STC32F_FPMU
  +--> FPMUL/STC32F_FPMU
  +--> FPADD/STC32F_FPMU
  +--> FPCMP/STC32F_FPMU

zebra_stop/CCD_Driver                         ----- -----

*** NEW ROOT ********************************

?C_C51STARTUP                                 ----- -----

*** NEW ROOT ********************************

?C_C51STARTUP?3                               ----- -----
  +--> main/main

main/main                                     ----- -----
  +--> clock_init/board
  +--> board_init/board
  +--> car_init/control
  +--> car_check/control
  +--> key_scan/control
  +--> lcd_clear/SEEKFREE_18TFT
  +--> display_1/control

clock_init/board                              ----- -----
  +--> set_clk/board

set_clk/board                                 ----- -----

board_init/board                              ----- -----
  +--> delay_init/zf_delay
  +--> ICacheOn/board
  +--> uart_init/zf_uart
  +--> EnableGlobalIRQ/board

delay_init/zf_delay                           ----- -----
  +--> ?C?SLDIV/?C?SLDIV

?C?SLDIV/?C?SLDIV                             ----- -----
  +--> ?C?ULIDIV/?C?ULDIV

?C?ULIDIV/?C?ULDIV                            ----- -----

ICacheOn/board                                ----- -----

uart_init/zf_uart                             ----- -----
  +--> ?C?ULIDIV/?C?ULDIV

EnableGlobalIRQ/board                         ----- -----

car_init/control                              ----- -----
  +--> lcd_init/SEEKFREE_18TFT
  +--> lcd_clear/SEEKFREE_18TFT
  +--> PID_param_init/control
  +--> wireless_uart_init/SEEKFREE_WIRELESS
  +--> ctimer_count_init/zf_tim
L251 LINKER/LOCATER V4.66.93.0                                                        12/27/2024  03:02:31  PAGE 21


  +--> pit_timer_ms/zf_tim
  +--> gpio_mode/zf_gpio
  +--> delay_ms/zf_delay
  +--> imu660ra_init/SEEKFREE_IMU660RA
  +--> pwm_init/zf_pwm
  +--> ccd_init/SEEKFREE_TSL1401
  +--> dl1b_init/SEEKFREE_DL1B

lcd_init/SEEKFREE_18TFT                       ----- -----
  +--> spi_init/zf_spi
  +--> delay_ms/zf_delay
  +--> lcd_writeIndex/SEEKFREE_18TFT
  +--> lcd_writeData/SEEKFREE_18TFT
  +--> lcd_clear/SEEKFREE_18TFT

spi_init/zf_spi                               ----- -----
  +--> gpio_mode/zf_gpio

gpio_mode/zf_gpio                             ----- -----

delay_ms/zf_delay                             ----- -----

lcd_writeIndex/SEEKFREE_18TFT                 ----- -----
  +--> spi_mosi/zf_spi

spi_mosi/zf_spi                               ----- -----

lcd_writeData/SEEKFREE_18TFT                  ----- -----
  +--> spi_mosi/zf_spi

lcd_clear/SEEKFREE_18TFT                      ----- -----
  +--> lcd_set_region/SEEKFREE_18TFT
  +--> lcd_writedata_16bit/SEEKFREE_18TFT

lcd_set_region/SEEKFREE_18TFT                 ----- -----
  +--> lcd_writeIndex/SEEKFREE_18TFT
  +--> lcd_writeData/SEEKFREE_18TFT

lcd_writedata_16bit/SEEKFREE_18TFT            ----- -----
  +--> spi_mosi/zf_spi

PID_param_init/control                        ----- -----
  +--> memset?_/memset

memset?_/memset                               ----- -----

wireless_uart_init/SEEKFREE_WIRELESS          ----- -----
  +--> fifo_init/zf_fifo
  +--> uart_init/zf_uart

fifo_init/zf_fifo                             ----- -----

ctimer_count_init/zf_tim                      ----- -----

pit_timer_ms/zf_tim                           ----- -----
  +--> ?C?SLDIV/?C?SLDIV

imu660ra_init/SEEKFREE_IMU660RA               ----- -----
  +--> delay_ms/zf_delay
  +--> imu660ra_self_check/SEEKFREE_IMU660RA
  +--> PRINTF/PRINTF
  +--> imu660ra_write_register/SEEKFREE_IMU660RA
  +--> imu660ra_write_registers/SEEKFREE_IMU660RA
  +--> imu660ra_read_register/SEEKFREE_IMU660RA

L251 LINKER/LOCATER V4.66.93.0                                                        12/27/2024  03:02:31  PAGE 22


imu660ra_self_check/SEEKFREE_IMU660RA         ----- -----
  +--> imu660ra_read_register/SEEKFREE_IMU660RA
  +--> delay_ms/zf_delay

imu660ra_read_register/SEEKFREE_IMU660RA      ----- -----
  +--> imu660ra_simspi_r_reg_bytes/SEEKFREE_IMU660RA

PRINTF/PRINTF                                 10C9H 10F0H
  +--> OUT/PRINTF

OUT/PRINTF                                    ----- -----
  +--> PUTCH/PRINTF

PUTCH/PRINTF                                  ----- -----
  +--> putchar/board
  +--> OUT/PRINTF

putchar/board                                 ----- -----
  +--> uart_putchar/zf_uart

uart_putchar/zf_uart                          ----- -----

imu660ra_write_register/SEEKFREE_IMU660R+     ----- -----
... A
  +--> imu660ra_simspi_w_reg_byte/SEEKFREE_IMU660RA

imu660ra_simspi_w_reg_byte/SEEKFREE_IMU6+     ----- -----
... 60RA
  +--> imu660ra_simspi_wr_byte/SEEKFREE_IMU660RA

imu660ra_write_registers/SEEKFREE_IMU660+     ----- -----
... RA
  +--> imu660ra_simspi_w_reg_bytes/SEEKFREE_IMU660RA

imu660ra_simspi_w_reg_bytes/SEEKFREE_IMU+     ----- -----
... 660RA
  +--> imu660ra_simspi_wr_byte/SEEKFREE_IMU660RA

pwm_init/zf_pwm                               ----- -----
  +--> pwm_set_gpio/zf_pwm
  +--> ?C?ULIDIV/?C?ULDIV
  +--> FCASTL/STC32F_FPMU
  +--> FPDIV/STC32F_FPMU
  +--> FPMUL/STC32F_FPMU
  +--> CASTF/STC32F_FPMU

pwm_set_gpio/zf_pwm                           ----- -----
  +--> gpio_mode/zf_gpio

ccd_init/SEEKFREE_TSL1401                     ----- -----
  +--> adc_init/zf_adc
  +--> pit_timer_ms/zf_tim

adc_init/zf_adc                               ----- -----

dl1b_init/SEEKFREE_DL1B                       ----- -----
  +--> delay_ms/zf_delay
  +--> dl1b_iic_transfer_8bit_array/SEEKFREE_DL1B
  +--> memcpy?_/memcpy

car_check/control                             ----- -----
  +--> count_ones/control

key_scan/control                              ----- -----
  +--> delay_ms/zf_delay
L251 LINKER/LOCATER V4.66.93.0                                                        12/27/2024  03:02:31  PAGE 23



display_1/control                             ----- -----
  +--> lcd_showstr/SEEKFREE_18TFT
  +--> FCASTL/STC32F_FPMU
  +--> lcd_showfloat/SEEKFREE_18TFT
  +--> lcd_showuint16/SEEKFREE_18TFT
  +--> lcd_clear/SEEKFREE_18TFT
  +--> FPADD/STC32F_FPMU
  +--> FPSUB/STC32F_FPMU

lcd_showstr/SEEKFREE_18TFT                    ----- -----
  +--> lcd_showchar/SEEKFREE_18TFT

lcd_showchar/SEEKFREE_18TFT                   ----- -----
  +--> lcd_set_region/SEEKFREE_18TFT
  +--> lcd_writedata_16bit/SEEKFREE_18TFT

lcd_showfloat/SEEKFREE_18TFT                  ----- -----
  +--> FPCMP/STC32F_FPMU
  +--> zf_sprintf/SEEKFREE_FUNCTION
  +--> lcd_showstr/SEEKFREE_18TFT

zf_sprintf/SEEKFREE_FUNCTION                  ----- -----
  +--> number_conversion_ascii/SEEKFREE_FUNCTION
  +--> printf_reverse_order/SEEKFREE_FUNCTION
  +--> memcpy?_/memcpy
  +--> CASTF/STC32F_FPMU
  +--> FPCMP/STC32F_FPMU
  +--> FCASTL/STC32F_FPMU
  +--> FPSUB/STC32F_FPMU
  +--> FPMUL/STC32F_FPMU

number_conversion_ascii/SEEKFREE_FUNCTIO+     ----- -----
... N
  +--> ?C?SLDIV/?C?SLDIV
  +--> ?C?ULIDIV/?C?ULDIV

printf_reverse_order/SEEKFREE_FUNCTION        ----- -----

lcd_showuint16/SEEKFREE_18TFT                 ----- -----
  +--> lcd_showchar/SEEKFREE_18TFT

*** NEW ROOT ********************************

?C_C51STARTUP?2                               ----- -----



PUBLIC SYMBOLS OF MODULE:  .\Out_File\SEEKFREE (board)


      VALUE       CLASS    TYPE      PUBLIC SYMBOL NAME
      =================================================
      00FF4E0BH   CODE     ---       ?C?BMOVENP
      00FF4E09H   CODE     ---       ?C?BMOVENP8
      00FFA674H   CODE     ---       ?C?CASTF
      000000FFH   NUMBER   ---       ?C?CODESEG
      00FFA67AH   CODE     ---       ?C?FCASTC
      00FFA680H   CODE     ---       ?C?FCASTI
      00FF005EH   CODE     ---       ?C?FCASTL
      00FF000EH   CODE     ---       ?C?FPADD
      00FF0046H   CODE     ---       ?C?FPCMP3
      00FF4BD4H   CODE     ---       ?C?FPCONVERT
      00FF0056H   CODE     ---       ?C?FPDIV
      00FF001EH   CODE     ---       ?C?FPMUL
L251 LINKER/LOCATER V4.66.93.0                                                        12/27/2024  03:02:31  PAGE 24


      00FFA66DH   CODE     ---       ?C?FPNEG
      00FF4C8CH   CODE     ---       ?C?FPROUND
      00FF0016H   CODE     ---       ?C?FPSUB
      00FF4CFFH   CODE     ---       ?C?FTNPWR
      00FFA2FCH   CODE     ---       ?C?INITEDATA
      00FFB194H   HCONST   WORD      ?C?INITEDATA_END
      00FF4D79H   CODE     ---       ?C?LIMUL
      00FF4D68H   CODE     ---       ?C?LMUL
      00FF47B7H   CODE     ---       ?C?PRNFMT
      00FF4D36H   CODE     ---       ?C?SIDIV
      00FF4DD5H   CODE     NEAR LAB  ?C?SLDIV
      00FF0000H   CODE     ---       ?C?STARTUP
      00FF4D84H   CODE     NEAR LAB  ?C?ULDIV
      00FF4D82H   CODE     NEAR LAB  ?C?ULIDIV
      00000001H   NUMBER   ---       ?C?XDATASEG
      00FF0000H   CODE     ---       ?C_STARTUP
      000013EEH   EDATA    BYTE      ?data_conversion?BYTE
      0000136CH   EDATA    BYTE      ?dl1b_iic_transfer_8bit_array?BYTE
      0000135CH   EDATA    BYTE      ?fifo_init?BYTE
      0000125BH   EDATA    BYTE      ?fifo_read_buffer?BYTE
      00001423H   EDATA    BYTE      ?fifo_read_element?BYTE
      00001273H   EDATA    BYTE      ?fifo_read_tail_buffer?BYTE
      000012F2H   EDATA    BYTE      ?fifo_write_buffer?BYTE
      0000156EH   EDATA    BYTE      ?iap_read_bytes?BYTE
      00001578H   EDATA    BYTE      ?iap_write_bytes?BYTE
      000017E3H   EDATA    BYTE      ?iic_init?BYTE
      00000EAEH   EDATA    BYTE      ?ips114_showfloat?BYTE
      00000E7EH   EDATA    BYTE      ?ips114_showfloat_simspi?BYTE
      0000128BH   EDATA    BYTE      ?ips200_draw_line?BYTE
      00001242H   EDATA    BYTE      ?ips200_show_chinese?BYTE
      00001116H   EDATA    BYTE      ?ips200_show_float?BYTE
      00001139H   EDATA    BYTE      ?ips200_show_wave?BYTE
      00000E4EH   EDATA    BYTE      ?lcd_showfloat?BYTE
      00000E1EH   EDATA    BYTE      ?lcd_showfloat_simspi?BYTE
      00000EDEH   EDATA    BYTE      ?oled_printf_float?BYTE
      00000F0EH   EDATA    BYTE      ?oled_printf_float_spi?BYTE
      0000120DH   EDATA    BYTE      ?pid_realize_a?BYTE
      000010F1H   EDATA    ---       ?printf?BYTE
      000012CAH   EDATA    BYTE      ?pwm_freq?BYTE
      000012B6H   EDATA    BYTE      ?pwm_init?BYTE
      00001197H   EDATA    BYTE      ?seekfree_assistant_camera_boundary_config?BYTE
      0000138BH   EDATA    BYTE      ?seekfree_assistant_camera_data_send?BYTE
      00001604H   EDATA    BYTE      ?seekfree_assistant_camera_information_config?BYTE
      000013FCH   EDATA    BYTE      ?spi_init?BYTE
      000013A8H   EDATA    BYTE      ?uart_init?BYTE
      00001582H   EDATA    BYTE      ?uart_putbuff?BYTE
      00000CCBH   EDATA    BYTE      ?zf_sprintf?BYTE
      00001B0DH   HDATA    ---       __mp__
      00000B14H   EDATA    FLOAT     A
*SFR* 000000E0H   DATA     BYTE      ACC
*SFR* 000000BCH   DATA     BYTE      ADC_CONTR
      00FF93BBH   CODE     ---       adc_init
      00FFA08AH   CODE     ---       adc_once
*SFR* 000000BDH   DATA     BYTE      ADC_RES
*SFR* 000000BEH   DATA     BYTE      ADC_RESL
*SFR* 000000DEH   DATA     BYTE      ADCCFG
*DEL*:00000000H   CODE     ---       addToArray
      00000412H   EDATA    FLOAT     aim_angle_filter
      00FF32FDH   CODE     ---       ascii_font_6x8
      00FF212DH   CODE     ---       ascii_font_8x16
*DEL*:00000000H   CODE     ---       ATAN?_
*SFR* 000000EFH   DATA     BYTE      AUXINTIF
*SFR* 0000008EH   DATA     BYTE      AUXR
*SFR* 00000097H   DATA     BYTE      AUXR2
      00000B70H   EDATA    FLOAT     bas_kp
L251 LINKER/LOCATER V4.66.93.0                                                        12/27/2024  03:02:31  PAGE 25


      00FF8261H   CODE     ---       Bin_CCD_Filter
*DEL*:00000000H   CODE     ---       bluetooth_ch9141_init
*DEL*:00000000H   CODE     ---       bluetooth_ch9141_read_buff
*DEL*:00000000H   CODE     ---       bluetooth_ch9141_send_buff
      00FFA52CH   CODE     ---       bluetooth_ch9141_uart_callback
      00FF9C37H   CODE     ---       board_init
      00001889H   EDATA    ---       busy
*DEL*:00000000H   CODE     ---       calc_ave
*SFR* 000000F1H   DATA     BYTE      CANICR
      00FF8595H   CODE     ---       car_check
      00FF8847H   CODE     ---       car_init
      00000AE3H   EDATA    BYTE      car_ready_flag
      00000AD4H   EDATA    BYTE      car_ready_gogogo
      00000662H   EDATA    BYTE      ccd1_circle_left_out
      0000043FH   EDATA    BYTE      ccd1_l_loss
      00000441H   EDATA    BYTE      ccd1_r_loss
      0000043AH   EDATA    WORD      ccd1_w_count
      00000440H   EDATA    BYTE      ccd2_l_loss
      00000443H   EDATA    BYTE      ccd2_r_loss
      0000043CH   EDATA    WORD      ccd2_w_count
      00FF9A48H   CODE     ---       ccd_collect
      0000044EH   EDATA    ---       ccd_data_01
      0000054FH   EDATA    ---       ccd_data_02
      00000668H   EDATA    ---       ccd_data_ch1
      00000768H   EDATA    ---       ccd_data_ch2
      00FFA4CAH   CODE     ---       ccd_init
      00000417H   EDATA    BYTE      ccd_select
*DEL*:00000000H   CODE     ---       ccd_send_data
      00FF9171H   CODE     ---       ccd_threshold
      00FF8DF1H   CODE     ---       ccd_two_value
      00000446H   EDATA    WORD      ccd_value1
      00000448H   EDATA    WORD      ccd_value2
      00000AD2H   EDATA    WORD      circle_begin_distence
      0000117BH   EDATA    FLOAT     circle_begin_yaw
      00001178H   EDATA    BYTE      circle_big_flag
      00000409H   EDATA    BYTE      circle_count
      00000425H   EDATA    BYTE      circle_distance
      0000118AH   EDATA    INT       circle_flag_in_cnt
      0000118CH   EDATA    INT       circle_flag_out_cnt
      0000118EH   EDATA    FLOAT     circle_in_yaw
      00000659H   EDATA    BYTE      circle_left_big_check
      0000044CH   EDATA    BYTE      circle_left_check
      00000433H   EDATA    BYTE      circle_left_in_flag
      00000437H   EDATA    BYTE      circle_left_out
      00000434H   EDATA    BYTE      circle_left_out_flag
      00000B69H   EDATA    WORD      circle_no_distence
      00000444H   EDATA    BYTE      circle_right_check
      0000042EH   EDATA    BYTE      circle_right_in_flag
      00000431H   EDATA    BYTE      circle_right_out_flag
      00000AEAH   EDATA    ---       circle_run_point
      00000432H   EDATA    BYTE      circle_sideline_count
      0000117FH   EDATA    BYTE      circle_size
      00001192H   EDATA    BYTE      circle_small
      00001180H   EDATA    FLOAT     circle_yaw_error
      00FFA608H   CODE     ---       clock_init
*SFR* 000000E6H   DATA     BYTE      CMPCR1
*SFR* 000000E7H   DATA     BYTE      CMPCR2
*DEL*:00000000H   CODE     ---       COS?_
      00001188H   EDATA    INT       count_big
      00000B67H   EDATA    INT       count_crbegin_flag
      00000AACH   EDATA    INT       count_cross_cricle_flag
      00000AE4H   EDATA    INT       count_cross_flag
      00000AE1H   EDATA    INT       count_nocri_flag
      00FF99C6H   CODE     ---       count_ones
      00000408H   EDATA    BYTE      count_ones_ccd1
L251 LINKER/LOCATER V4.66.93.0                                                        12/27/2024  03:02:31  PAGE 26


      0000040AH   EDATA    BYTE      count_ones_ccd2
      00000B12H   EDATA    INT       count_ramp_flag
      00000AAAH   EDATA    INT       count_turn_pro_flag
      00000ADBH   EDATA    INT       count_zebra_flag
*DEL*:00000000H   CODE     ---       countOnes
*DEL*:00000000H   CODE     ---       CRC_CHECK
      00FF405AH   CODE     ---       cricle_proccess
      00000416H   EDATA    BYTE      cross_check
      0000044DH   EDATA    BYTE      cross_circle_cleck
      00001184H   EDATA    FLOAT     cross_circle_yaw
      00000AE6H   EDATA    WORD      cross_cricle_distence
      00FF807FH   CODE     ---       cross_cricle_proccess
      00000B63H   EDATA    WORD      cross_distence
      00FF9F20H   CODE     ---       ctimer_count_clean
      00FFA0E0H   CODE     ---       ctimer_count_init
      00FF9470H   CODE     ---       ctimer_count_read
      00000AE8H   EDATA    INT       dat
*DEL*:00000000H   CODE     ---       data_conversion
      00FFA463H   CODE     ---       delay_init
      00FFA366H   CODE     ---       delay_ms
*DEL*:00000000H   CODE     ---       delay_us
*DEL*:00000000H   CODE     ---       DisableGlobalIRQ
*DEL*:00000000H   CODE     ---       disalbe_icache
      *EXTERN*    CODE     ---       displa_0
*DEL*:00000000H   CODE     ---       display_0
      00FF7042H   CODE     ---       display_1
      00001179H   EDATA    WORD      distance_cross_saw
      00001193H   EDATA    WORD      distance_saw
      0000194FH   EDATA    WORD      dl1a_distance_mm
      00001951H   EDATA    BYTE      dl1a_finsh_flag
*DEL*:00000000H   CODE     ---       dl1a_get_distance
*DEL*:00000000H   CODE     ---       dl1a_init
      00FF00A6H   CODE     ---       dl1b_default_configuration
      000018F3H   EDATA    WORD      dl1b_distance_mm
      000018F5H   EDATA    BYTE      dl1b_finsh_flag
      00FF897DH   CODE     ---       dl1b_get_distance
      00FF9BBEH   CODE     ---       dl1b_iic_transfer_8bit_array
      00FF8CDFH   CODE     ---       dl1b_init
      000018F6H   EDATA    BYTE      dl1b_init_flag
*SFR* 000000EDH   DATA     BYTE      DMAIR
*SFR* 00000083H   DATA     BYTE      DPH
*SFR* 00000082H   DATA     BYTE      DPL
*SFR* 000000A8H.7 DATA     BIT       EA
*DEL*:00000000H   CODE     ---       eeprom_trig
      0000065CH   EDATA    WORD      element_ccd_value
*DEL*:00000000H   CODE     ---       element_sort
      00FF0006H   CODE     ---       EnableGlobalIRQ
*DEL*:00000000H   CODE     ---       enalbe_icache
*DEL*:00000000H   CODE     ---       encoder_angle_simspi
*DEL*:00000000H   CODE     ---       encoder_angle_spi
*DEL*:00000000H   CODE     ---       encoder_delay_us
*DEL*:00000000H   CODE     ---       encoder_init_simspi
*DEL*:00000000H   CODE     ---       encoder_init_spi
*DEL*:00000000H   CODE     ---       encoder_self4_check
*DEL*:00000000H   CODE     ---       encoder_self5_check
*DEL*:00000000H   CODE     ---       encoder_simspi_r_reg_byte
*DEL*:00000000H   CODE     ---       encoder_simspi_w_reg_byte
*DEL*:00000000H   CODE     ---       encoder_spi_r_reg_byte
*DEL*:00000000H   CODE     ---       encoder_spi_w_reg_byte
*SFR* 000000A8H.4 DATA     BIT       ES
*SFR* 000000A8H.1 DATA     BIT       ET0
*SFR* 000000A8H.3 DATA     BIT       ET1
*SFR* 000000A8H.0 DATA     BIT       EX0
*SFR* 000000A8H.2 DATA     BIT       EX1
*DEL*:00000000H   CODE     ---       exit_init
L251 LINKER/LOCATER V4.66.93.0                                                        12/27/2024  03:02:31  PAGE 27


*SFR* 000000D0H.5 DATA     BIT       F0
*DEL*:00000000H   CODE     ---       FABS?_
*DEL*:00000000H   CODE     ---       FCLEX
*DEL*:00000000H   CODE     ---       fifo_clear
      00FF9943H   CODE     ---       fifo_init
*DEL*:00000000H   CODE     ---       fifo_read_buffer
*DEL*:00000000H   CODE     ---       fifo_read_element
*DEL*:00000000H   CODE     ---       fifo_read_tail_buffer
*DEL*:00000000H   CODE     ---       fifo_used
      00FF6CB0H   CODE     ---       fifo_write_buffer
*DEL*:00000000H   CODE     ---       fifo_write_element
*DEL*:00000000H   CODE     ---       filter
*DEL*:00000000H   CODE     ---       FINIT
      00000653H   EDATA    INT       flag_circle
      00000428H   EDATA    INT       flag_cross
      00000406H   EDATA    INT       flag_cross_circle
      0000042FH   EDATA    INT       flag_ramp
      00000E10H   EDATA    BYTE      flag_turn_pro
*DEL*:00000000H   CODE     ---       FPCRR
*DEL*:00000000H   CODE     ---       FPCRW
*DEL*:00000000H   CODE     ---       FPSRR
*DEL*:00000000H   CODE     ---       FPSRW
*DEL*:00000000H   CODE     ---       free
*DEL*:00000000H   CODE     ---       func_double_to_str
*DEL*:00000000H   CODE     ---       func_float_to_str
*DEL*:00000000H   CODE     ---       func_get_greatest_common_divisor
*DEL*:00000000H   CODE     ---       func_hex_to_str
*DEL*:00000000H   CODE     ---       func_int_to_str
*DEL*:00000000H   CODE     ---       func_soft_delay
*DEL*:00000000H   CODE     ---       func_str_to_double
*DEL*:00000000H   CODE     ---       func_str_to_float
*DEL*:00000000H   CODE     ---       func_str_to_hex
*DEL*:00000000H   CODE     ---       func_str_to_int
*DEL*:00000000H   CODE     ---       func_str_to_uint
*DEL*:00000000H   CODE     ---       func_uint_to_str
*DEL*:00000000H   CODE     ---       FXAM
      00FF98BFH   CODE     ---       get_inertia_offset
      00FF7C13H   CODE     ---       get_mid_point1
      00FF7974H   CODE     ---       get_mid_point2
      00FF5ABBH   CODE     ---       get_offset
      00FFA664H   CODE     ---       get_target_yaw
      00FF9AC8H   CODE     ---       get_target_yaw_cross_cricle
      00FF374DH   CODE     ---       gpio_mode
*DEL*:00000000H   CODE     ---       gpio_pull_set
*SFR* 000000F6H   DATA     BYTE      IAP_ADDRE
*SFR* 000000C3H   DATA     BYTE      IAP_ADDRH
*SFR* 000000C4H   DATA     BYTE      IAP_ADDRL
*SFR* 000000C5H   DATA     BYTE      IAP_CMD
*SFR* 000000C7H   DATA     BYTE      IAP_CONTR
*SFR* 000000C2H   DATA     BYTE      IAP_DATA
*DEL*:00000000H   CODE     ---       iap_erase_page
*DEL*:00000000H   CODE     ---       iap_get_cmd_state
*DEL*:00000000H   CODE     ---       iap_idle
*DEL*:00000000H   CODE     ---       iap_init
*DEL*:00000000H   CODE     ---       iap_read_bytes
*DEL*:00000000H   CODE     ---       iap_set_tps
*SFR* 000000F5H   DATA     BYTE      IAP_TPS
*SFR* 000000C6H   DATA     BYTE      IAP_TRIG
*DEL*:00000000H   CODE     ---       iap_write_bytes
      00FFA653H   CODE     ---       ICacheOn
*SFR* 000000F7H   DATA     BYTE      ICHECR
*DEL*:00000000H   CODE     ---       icm20602_acc_transition
      0000148FH   EDATA    INT       icm20602_acc_x
      00001491H   EDATA    INT       icm20602_acc_y
      00001493H   EDATA    INT       icm20602_acc_z
L251 LINKER/LOCATER V4.66.93.0                                                        12/27/2024  03:02:31  PAGE 28


*DEL*:00000000H   CODE     ---       icm20602_get_acc
*DEL*:00000000H   CODE     ---       icm20602_get_gyro
*DEL*:00000000H   CODE     ---       icm20602_gyro_transition
      00001495H   EDATA    INT       icm20602_gyro_x
      00001497H   EDATA    INT       icm20602_gyro_y
      00001499H   EDATA    INT       icm20602_gyro_z
*DEL*:00000000H   CODE     ---       icm20602_init
*SFR* 000000A8H   DATA     BYTE      IE
*SFR* 000000AFH   DATA     BYTE      IE2
*DEL*:00000000H   CODE     ---       iic_change_pin
*DEL*:00000000H   CODE     ---       iic_delay_us
*DEL*:00000000H   CODE     ---       iic_init
*DEL*:00000000H   CODE     ---       iic_read_reg
*DEL*:00000000H   CODE     ---       iic_read_reg_bytes
*DEL*:00000000H   CODE     ---       iic_write_reg
*DEL*:00000000H   CODE     ---       imu660ra_acc_transition
      0000149BH   EDATA    INT       imu660ra_acc_x
      0000149DH   EDATA    INT       imu660ra_acc_y
      0000149FH   EDATA    INT       imu660ra_acc_z
      00FF012DH   CODE     ---       imu660ra_config_file
*DEL*:00000000H   CODE     ---       imu660ra_get_acc
      00FFA134H   CODE     ---       imu660ra_get_gyro
      00FF95CEH   CODE     ---       imu660ra_gyro_transition
      000014A1H   EDATA    INT       imu660ra_gyro_x
      000014A3H   EDATA    INT       imu660ra_gyro_y
      000014A5H   EDATA    INT       imu660ra_gyro_z
      00FF9524H   CODE     ---       imu660ra_init
*DEL*:00000000H   CODE     ---       imu963ra_acc_transition
      00001304H   EDATA    INT       imu963ra_acc_x
      00001306H   EDATA    INT       imu963ra_acc_y
      00001308H   EDATA    INT       imu963ra_acc_z
*DEL*:00000000H   CODE     ---       imu963ra_get_acc
*DEL*:00000000H   CODE     ---       imu963ra_get_gyro
*DEL*:00000000H   CODE     ---       imu963ra_get_mag
*DEL*:00000000H   CODE     ---       imu963ra_gyro_transition
      00001310H   EDATA    INT       imu963ra_gyro_x
      00001312H   EDATA    INT       imu963ra_gyro_y
      00001314H   EDATA    INT       imu963ra_gyro_z
*DEL*:00000000H   CODE     ---       imu963ra_init
*DEL*:00000000H   CODE     ---       imu963ra_mag_transition
      0000130AH   EDATA    INT       imu963ra_mag_x
      0000130CH   EDATA    INT       imu963ra_mag_y
      0000130EH   EDATA    INT       imu963ra_mag_z
*DEL*:00000000H   CODE     ---       IncPID_realize
      0000041EH   EDATA    DWORD     inertia_kd
      0000042AH   EDATA    DWORD     inertia_kp
      00000AAEH   EDATA    ---       inertia_pid
      00FF0086H   CODE     ---       INT0_Isr
      00FF000AH   CODE     ---       INT1_Isr
      00FF008EH   CODE     ---       INT2_Isr
      00FF0096H   CODE     ---       INT3_Isr
      00FF009EH   CODE     ---       INT4_Isr
*SFR* 0000008FH   DATA     BYTE      INTCLKO
*SFR* 000000B8H   DATA     BYTE      IP
*SFR* 000000B5H   DATA     BYTE      IP2
*SFR* 000000B6H   DATA     BYTE      IP2H
*SFR* 000000DFH   DATA     BYTE      IP3
*SFR* 000000EEH   DATA     BYTE      IP3H
*SFR* 000000B7H   DATA     BYTE      IPH
*DEL*:00000000H   CODE     ---       ips114_clear
*DEL*:00000000H   CODE     ---       ips114_clear_simspi
*DEL*:00000000H   CODE     ---       ips114_drawpoint
*DEL*:00000000H   CODE     ---       ips114_drawpoint_simspi
*DEL*:00000000H   CODE     ---       ips114_init
*DEL*:00000000H   CODE     ---       ips114_init_simspi
L251 LINKER/LOCATER V4.66.93.0                                                        12/27/2024  03:02:31  PAGE 29


*DEL*:00000000H   CODE     ---       ips114_set_region
*DEL*:00000000H   CODE     ---       ips114_set_region_simspi
*DEL*:00000000H   CODE     ---       ips114_showchar
*DEL*:00000000H   CODE     ---       ips114_showchar_simspi
*DEL*:00000000H   CODE     ---       ips114_showfloat
*DEL*:00000000H   CODE     ---       ips114_showfloat_simspi
*DEL*:00000000H   CODE     ---       ips114_showint16
*DEL*:00000000H   CODE     ---       ips114_showint16_simspi
*DEL*:00000000H   CODE     ---       ips114_showint32
*DEL*:00000000H   CODE     ---       ips114_showint32_simspi
*DEL*:00000000H   CODE     ---       ips114_showint8
*DEL*:00000000H   CODE     ---       ips114_showint8_simspi
*DEL*:00000000H   CODE     ---       ips114_showstr
*DEL*:00000000H   CODE     ---       ips114_showstr_simspi
*DEL*:00000000H   CODE     ---       ips114_showuint16
*DEL*:00000000H   CODE     ---       ips114_showuint16_simspi
*DEL*:00000000H   CODE     ---       ips114_showuint8
*DEL*:00000000H   CODE     ---       ips114_showuint8_simspi
*DEL*:00000000H   CODE     ---       ips114_writeData
*DEL*:00000000H   CODE     ---       ips114_writedata_16bit
*DEL*:00000000H   CODE     ---       ips114_writeData_simspi
*DEL*:00000000H   CODE     ---       ips114_writeDatai_16bit_simspi
*DEL*:00000000H   CODE     ---       ips114_writeIndex
*DEL*:00000000H   CODE     ---       ips114_writeIndex_simspi
*DEL*:00000000H   CODE     ---       ips200_clear
*DEL*:00000000H   CODE     ---       ips200_draw_line
*DEL*:00000000H   CODE     ---       ips200_draw_point
*DEL*:00000000H   CODE     ---       ips200_full
*DEL*:00000000H   CODE     ---       ips200_init_spi
*DEL*:00000000H   CODE     ---       ips200_set_color
*DEL*:00000000H   CODE     ---       ips200_set_dir
*DEL*:00000000H   CODE     ---       ips200_set_font
*DEL*:00000000H   CODE     ---       ips200_show_char
*DEL*:00000000H   CODE     ---       ips200_show_chinese
*DEL*:00000000H   CODE     ---       ips200_show_float
*DEL*:00000000H   CODE     ---       ips200_show_int
*DEL*:00000000H   CODE     ---       ips200_show_string
*DEL*:00000000H   CODE     ---       ips200_show_uint
*DEL*:00000000H   CODE     ---       ips200_show_wave
*DEL*:00000000H   CODE     ---       ips200_write_16bit_data_spi
*DEL*:00000000H   CODE     ---       ips200_write_8bit_data_spi
*SFR* 0000009DH   DATA     BYTE      IRCBAND
*SFR* 0000009FH   DATA     BYTE      IRTRIM
*SFR* 00000088H.0 DATA     BIT       IT0
*SFR* 00000088H.2 DATA     BIT       IT1
*DEL*:00000000H   CODE     ---       key_1
      00000B3EH   EDATA    BYTE      key_mode
      00FF92FDH   CODE     ---       key_scan
      00000B6BH   EDATA    INT       key_test
      00000AD7H   EDATA    FLOAT     KP
      00FF9E61H   CODE     ---       KP_get
      0000054EH   EDATA    BYTE      l_circle_max
      000009A9H   EDATA    ---       last_ccd_data
      0000041CH   EDATA    BYTE      last_count_ones_ccd1
      0000041DH   EDATA    BYTE      last_count_ones_ccd2
      0000040BH   EDATA    BYTE      last_left_point1
      0000040DH   EDATA    BYTE      last_left_point2
      00000418H   EDATA    BYTE      last_mid_point2
      00000424H   EDATA    CHAR      last_offset
      00000442H   EDATA    CHAR      last_offset2
      00000656H   EDATA    BYTE      last_right_point1
      00000658H   EDATA    BYTE      last_right_point2
      00FFA033H   CODE     ---       lcd_clear
*DEL*:00000000H   CODE     ---       lcd_clear_simspi
*DEL*:00000000H   CODE     ---       lcd_drawpoint
L251 LINKER/LOCATER V4.66.93.0                                                        12/27/2024  03:02:31  PAGE 30


*DEL*:00000000H   CODE     ---       lcd_drawpoint_simspi
      00FF7E8DH   CODE     ---       lcd_init
*DEL*:00000000H   CODE     ---       lcd_init_simspi
      00FF9DFDH   CODE     ---       lcd_set_region
*DEL*:00000000H   CODE     ---       lcd_set_region_simspi
*DEL*:00000000H   CODE     ---       lcd_show_ccd
      00FF923EH   CODE     ---       lcd_showchar
*DEL*:00000000H   CODE     ---       lcd_showchar_simspi
      00FF8702H   CODE     ---       lcd_showfloat
*DEL*:00000000H   CODE     ---       lcd_showfloat_simspi
*DEL*:00000000H   CODE     ---       lcd_showint16
*DEL*:00000000H   CODE     ---       lcd_showint16_simspi
*DEL*:00000000H   CODE     ---       lcd_showint32
*DEL*:00000000H   CODE     ---       lcd_showint32_simspi
*DEL*:00000000H   CODE     ---       lcd_showint8
*DEL*:00000000H   CODE     ---       lcd_showint8_simspi
      00FF9F7DH   CODE     ---       lcd_showstr
*DEL*:00000000H   CODE     ---       lcd_showstr_simspi
      00FF90A4H   CODE     ---       lcd_showuint16
*DEL*:00000000H   CODE     ---       lcd_showuint16_simspi
*DEL*:00000000H   CODE     ---       lcd_showuint8
*DEL*:00000000H   CODE     ---       lcd_showuint8_simspi
      00FFA5F3H   CODE     ---       lcd_writeData
      00FFA3C6H   CODE     ---       lcd_writedata_16bit
*DEL*:00000000H   CODE     ---       lcd_writeData_16bit_simspi
*DEL*:00000000H   CODE     ---       lcd_writeData_simspi
      00FFA5DEH   CODE     ---       lcd_writeIndex
*DEL*:00000000H   CODE     ---       lcd_writeIndex_simspi
      0000064FH   EDATA    BYTE      left_point1
      00000652H   EDATA    BYTE      left_point2
      00000650H   EDATA    INT       limit_motor_pwm
*SFR* 000000F9H   DATA     BYTE      LINICR
      00FF9836H   CODE     ---       main
*DEL*:00000000H   CODE     ---       malloc
      00FFA50DH   CODE     ---       max
      00FFA43EH   CODE     ---       memcpy?_
      00FFA5AEH   CODE     ---       memset?_
      0000065AH   EDATA    BYTE      mid_point1
      0000065BH   EDATA    BYTE      mid_point2
      00000B3FH   EDATA    ---       motor_pid
      00000ADDH   EDATA    INT       motor_pwm_out
      000014D7H   EDATA    INT       mpu6050_acc_x
      000014D9H   EDATA    INT       mpu6050_acc_y
      000014DBH   EDATA    INT       mpu6050_acc_z
*DEL*:00000000H   CODE     ---       mpu6050_get_accdata
*DEL*:00000000H   CODE     ---       mpu6050_get_gyro
      000014DDH   EDATA    INT       mpu6050_gyro_x
      000014DFH   EDATA    INT       mpu6050_gyro_y
      000014E1H   EDATA    INT       mpu6050_gyro_z
*DEL*:00000000H   CODE     ---       mpu6050_init
*DEL*:00000000H   CODE     ---       mpu6050_simiic_read_reg
*DEL*:00000000H   CODE     ---       mpu6050_simiic_read_regs
      00FFA39BH   CODE     ---       myabs
      0000040CH   EDATA    BYTE      Now_left_point2
      00000657H   EDATA    BYTE      Now_right_point2
*DEL*:00000000H   CODE     ---       NVIC_SetPriority
      00000435H   EDATA    CHAR      offset1
      00000436H   EDATA    CHAR      offset2
      000009A5H   EDATA    FLOAT     offset2_weight
      00000445H   EDATA    CHAR      offset_inertia
      00000DEBH   EDATA    CHAR      offset_keep
      00000DEAH   EDATA    CHAR      offset_keep_flag
      00000E00H   EDATA    FLOAT     offset_r
      00000DECH   EDATA    FLOAT     offset_r_d
      00000DF4H   EDATA    FLOAT     offset_r_x
L251 LINKER/LOCATER V4.66.93.0                                                        12/27/2024  03:02:31  PAGE 31


      00000655H   EDATA    CHAR      offset_weight
      00FF3525H   CODE     ---       oled_6x8
      00FF271DH   CODE     ---       oled_8x16
*DEL*:00000000H   CODE     ---       oled_clrpixel
*DEL*:00000000H   CODE     ---       oled_clrpixel_spi
*DEL*:00000000H   CODE     ---       oled_dis_bmp
*DEL*:00000000H   CODE     ---       oled_dis_bmp_spi
*DEL*:00000000H   CODE     ---       oled_fill
*DEL*:00000000H   CODE     ---       oled_fill_spi
*DEL*:00000000H   CODE     ---       oled_hexascii
*DEL*:00000000H   CODE     ---       oled_hexascii_spi
*DEL*:00000000H   CODE     ---       oled_init
*DEL*:00000000H   CODE     ---       oled_init_spi
*DEL*:00000000H   CODE     ---       oled_int16
*DEL*:00000000H   CODE     ---       oled_int16_spi
*DEL*:00000000H   CODE     ---       oled_p6x8str
*DEL*:00000000H   CODE     ---       oled_p6x8str_spi
*DEL*:00000000H   CODE     ---       oled_p8x16str
*DEL*:00000000H   CODE     ---       oled_p8x16str_spi
*DEL*:00000000H   CODE     ---       oled_print_chinese
*DEL*:00000000H   CODE     ---       oled_print_chinese_spi
*DEL*:00000000H   CODE     ---       oled_printf_float
*DEL*:00000000H   CODE     ---       oled_printf_float_spi
*DEL*:00000000H   CODE     ---       oled_printf_int32
*DEL*:00000000H   CODE     ---       oled_printf_int32_spi
*DEL*:00000000H   CODE     ---       oled_putpixel
*DEL*:00000000H   CODE     ---       oled_putpixel_spi
*DEL*:00000000H   CODE     ---       oled_set_pos
*DEL*:00000000H   CODE     ---       oled_set_pos_spi
*DEL*:00000000H   CODE     ---       oled_uint16
*DEL*:00000000H   CODE     ---       oled_uint16_spi
*DEL*:00000000H   CODE     ---       oled_wrcmd
*DEL*:00000000H   CODE     ---       oled_wrcmd_spi
*DEL*:00000000H   CODE     ---       oled_wrdat
*DEL*:00000000H   CODE     ---       oled_wrdat_spi
*SFR* 00000080H   DATA     BYTE      P0
*SFR* 00000080H.2 DATA     BIT       P02
*SFR* 00000080H.7 DATA     BIT       P07
*SFR* 00000094H   DATA     BYTE      P0M0
*SFR* 00000093H   DATA     BYTE      P0M1
*SFR* 00000090H   DATA     BYTE      P1
*SFR* 00000090H.6 DATA     BIT       P16
*SFR* 00000090H.7 DATA     BIT       P17
*SFR* 00000092H   DATA     BYTE      P1M0
*SFR* 00000091H   DATA     BYTE      P1M1
*SFR* 000000A0H   DATA     BYTE      P2
*SFR* 000000A0H.0 DATA     BIT       P20
*SFR* 000000A0H.1 DATA     BIT       P21
*SFR* 000000A0H.2 DATA     BIT       P22
*SFR* 000000A0H.3 DATA     BIT       P23
*SFR* 000000A0H.4 DATA     BIT       P24
*SFR* 000000A0H.5 DATA     BIT       P25
*SFR* 000000A0H.6 DATA     BIT       P26
*SFR* 000000A0H.7 DATA     BIT       P27
*SFR* 00000096H   DATA     BYTE      P2M0
*SFR* 00000095H   DATA     BYTE      P2M1
*SFR* 000000B0H   DATA     BYTE      P3
*SFR* 000000B0H.2 DATA     BIT       P32
*SFR* 000000B0H.5 DATA     BIT       P35
*SFR* 000000B0H.6 DATA     BIT       P36
*SFR* 000000B0H.7 DATA     BIT       P37
*SFR* 000000B2H   DATA     BYTE      P3M0
*SFR* 000000B1H   DATA     BYTE      P3M1
*SFR* 000000C0H   DATA     BYTE      P4
*SFR* 000000C0H.0 DATA     BIT       P40
L251 LINKER/LOCATER V4.66.93.0                                                        12/27/2024  03:02:31  PAGE 32


*SFR* 000000C0H.1 DATA     BIT       P41
*SFR* 000000C0H.2 DATA     BIT       P42
*SFR* 000000C0H.3 DATA     BIT       P43
*SFR* 000000C0H.4 DATA     BIT       P44
*SFR* 000000B4H   DATA     BYTE      P4M0
*SFR* 000000B3H   DATA     BYTE      P4M1
*SFR* 000000C8H   DATA     BYTE      P5
*SFR* 000000C8H.0 DATA     BIT       P50
*SFR* 000000C8H.1 DATA     BIT       P51
*SFR* 000000C8H.2 DATA     BIT       P52
*SFR* 000000CAH   DATA     BYTE      P5M0
*SFR* 000000C9H   DATA     BYTE      P5M1
*SFR* 000000E8H   DATA     BYTE      P6
*SFR* 000000CCH   DATA     BYTE      P6M0
*SFR* 000000CBH   DATA     BYTE      P6M1
*SFR* 000000F8H   DATA     BYTE      P7
*SFR* 000000E2H   DATA     BYTE      P7M0
*SFR* 000000E1H   DATA     BYTE      P7M1
*SFR* 000000A2H   DATA     BYTE      P_SW1
*SFR* 000000BAH   DATA     BYTE      P_SW2
*SFR* 000000BBH   DATA     BYTE      P_SW3
*SFR* 00000087H   DATA     BYTE      PCON
      00FF9676H   CODE     ---       PID_param_init
*DEL*:00000000H   CODE     ---       pid_realize_a
      00FF8EF1H   CODE     ---       pit_timer_ms
      00FF8424H   CODE     ---       PosPID_realize
      00FF475EH   CODE     NEAR LAB  printf
      00000AA9H   EDATA    BYTE      process_flag
*SFR* 000000D0H   DATA     BYTE      PSW
      00FFA62FH   CODE     ---       putchar
      00FFB231H   HCONST   ---       PWM_ARR_ADDR
      00FFB239H   HCONST   ---       PWM_CCER_ADDR
      00FFB249H   HCONST   ---       PWM_CCMR_ADDR
      00FFB211H   HCONST   ---       PWM_CCR_ADDR
      00FF8AB0H   CODE     ---       pwm_duty
*DEL*:00000000H   CODE     ---       pwm_freq
      00FF6500H   CODE     ---       pwm_init
      00FF73B5H   CODE     ---       pwm_set_gpio
      0000041AH   EDATA    BYTE      ramp_check
      00000B65H   EDATA    WORD      ramp_distence
*DEL*:00000000H   CODE     ---       realloc
*DEL*:00000000H   CODE     ---       recv_ack
*DEL*:00000000H   CODE     ---       recv_data
      0000044AH   EDATA    BYTE      right_point1
      0000044BH   EDATA    BYTE      right_point2
*SFR* 000000FFH   DATA     BYTE      RSTCFG
*SFR* 0000009BH   DATA     BYTE      S2BUF
*SFR* 0000009AH   DATA     BYTE      S2CON
*SFR* 000000ADH   DATA     BYTE      S3BUF
*SFR* 000000ACH   DATA     BYTE      S3CON
*SFR* 000000FEH   DATA     BYTE      S4BUF
*SFR* 000000FDH   DATA     BYTE      S4CON
*SFR* 00000099H   DATA     BYTE      SBUF
*SFR* 00000098H   DATA     BYTE      SCON
*DEL*:00000000H   CODE     ---       seekfree_assistant_camera_boundary_config
*DEL*:00000000H   CODE     ---       seekfree_assistant_camera_data_send
*DEL*:00000000H   CODE     ---       seekfree_assistant_camera_dot_send
*DEL*:00000000H   CODE     ---       seekfree_assistant_camera_information_config
*DEL*:00000000H   CODE     ---       seekfree_assistant_camera_send
*DEL*:00000000H   CODE     ---       seekfree_assistant_data_analysis
*DEL*:00000000H   CODE     ---       seekfree_assistant_init
      00000870H   EDATA    ---       seekfree_assistant_oscilloscope_data
*DEL*:00000000H   CODE     ---       seekfree_assistant_oscilloscope_send
      000008B3H   EDATA    ---       seekfree_assistant_parameter
      000008ABH   EDATA    ---       seekfree_assistant_parameter_update_flag
L251 LINKER/LOCATER V4.66.93.0                                                        12/27/2024  03:02:31  PAGE 33


      00001933H   EDATA    ---       seekfree_assistant_receive
      00001935H   EDATA    ---       seekfree_assistant_transfer
*DEL*:00000000H   CODE     ---       send_ack
*DEL*:00000000H   CODE     ---       send_data
*DEL*:00000000H   CODE     ---       send_nak
      00FF548FH   CODE     ---       set_clk
*DEL*:00000000H   CODE     ---       set_zero_position_simspi
*DEL*:00000000H   CODE     ---       set_zero_position_spi
*DEL*:00000000H   CODE     ---       showimage
*DEL*:00000000H   CODE     ---       simspi_r_reg_byte
*DEL*:00000000H   CODE     ---       simspi_w_reg_byte
*DEL*:00000000H   CODE     ---       simspi_wr_byte
*DEL*:00000000H   CODE     ---       SIN?_
*SFR* 000000CEH   DATA     BYTE      SPCTL
*SFR* 000000CFH   DATA     BYTE      SPDAT
      00000422H   EDATA    WORD      speed_cross
      00000426H   EDATA    WORD      speed_ramp
      00000404H   EDATA    WORD      speed_stright
      00000438H   EDATA    WORD      speed_turn
*DEL*:00000000H   CODE     ---       spi_change_mode
*DEL*:00000000H   CODE     ---       spi_change_pin
      00FF8FD6H   CODE     ---       spi_init
      00FFA641H   CODE     ---       spi_mosi
*DEL*:00000000H   CODE     ---       spi_r_reg_byte
*DEL*:00000000H   CODE     ---       spi_w_reg_byte
*DEL*:00000000H   CODE     ---       spi_wr_byte
*SFR* 000000CDH   DATA     BYTE      SPSTAT
*DEL*:00000000H   CODE     ---       SQRT?_
*DEL*:00000000H   CODE     ---       start
      00000B18H   EDATA    ---       steer_pid
      00000AD5H   EDATA    INT       steer_pwm_out
*DEL*:00000000H   CODE     ---       stop
*DEL*:00000000H   CODE     ---       strlen?_
      000018BBH   EDATA    LONG      sys_clk
*SFR* 000000D6H   DATA     BYTE      T2H
*SFR* 000000D7H   DATA     BYTE      T2L
*SFR* 000000D4H   DATA     BYTE      T3H
*SFR* 000000D5H   DATA     BYTE      T3L
*SFR* 000000D2H   DATA     BYTE      T4H
*SFR* 000000D3H   DATA     BYTE      T4L
*SFR* 000000DDH   DATA     BYTE      T4T3M
*SFR* 000000AEH   DATA     BYTE      TA
*DEL*:00000000H   CODE     ---       TAN?_
      00000DF8H   EDATA    FLOAT     target_yaw
*SFR* 00000088H   DATA     BYTE      TCON
      00000B6EH   EDATA    INT       test0
      00FF2D0DH   CODE     ---       tft_ascii
*SFR* 0000008CH   DATA     BYTE      TH0
*SFR* 0000008DH   DATA     BYTE      TH1
      00001195H   EDATA    INT       tiaocang_num
*SFR* 0000008AH   DATA     BYTE      TL0
*SFR* 0000008BH   DATA     BYTE      TL1
      00FF0012H   CODE     ---       TM0_Isr
      00FF001AH   CODE     ---       TM1_Isr
      00FFA686H   CODE     ---       TM2_Isr
      00FF607EH   CODE     ---       TM3_Isr
      00000B6DH   EDATA    BYTE      TM3_Isr_count
      00FF68DAH   CODE     ---       TM4_Isr
*SFR* 00000089H   DATA     BYTE      TMOD
      0000041BH   EDATA    BYTE      tof_enable
*SFR* 00000088H.4 DATA     BIT       TR0
*SFR* 00000088H.6 DATA     BIT       TR1
      00000667H   EDATA    BYTE      tsl1401_finish_flag
      00000ADFH   EDATA    WORD      tuen_pro_distence
      0000065EH   EDATA    DWORD     turn_kd
L251 LINKER/LOCATER V4.66.93.0                                                        12/27/2024  03:02:31  PAGE 34


      0000040EH   EDATA    DWORD     turn_kp
      00000E11H   EDATA    BYTE      turn_pro_flag
      00000DF0H   EDATA    FLOAT     turn_pro_yaw
      00FFA2A7H   CODE     ---       UART1_Isr
      00FF9EC2H   CODE     ---       UART2_Isr
      00FFA57AH   CODE     ---       UART3_Isr
      00FFA594H   CODE     ---       UART4_Isr
      00FF76C1H   CODE     ---       uart_init
*DEL*:00000000H   CODE     ---       uart_putbuff
      00FF9CAEH   CODE     ---       uart_putchar
*DEL*:00000000H   CODE     ---       uart_putstr
*SFR* 000000F4H   DATA     BYTE      USBCON
      000015F0H   EDATA    ---       virtual_scope_data
*DEL*:00000000H   CODE     ---       vodka_JustFloat_send
      00000008H   EDATA    ---       vofa_send_data
*SFR* 000000A6H   DATA     BYTE      VRTRIM
*DEL*:00000000H   CODE     ---       wait
*SFR* 000000C1H   DATA     BYTE      WDT_CONTR
      00001985H   EDATA    INT       wireless_type
      00FFA560H   CODE     ---       wireless_uart_callback
      00FFA263H   CODE     ---       wireless_uart_init
*DEL*:00000000H   CODE     ---       wireless_uart_read_buff
*DEL*:00000000H   CODE     ---       wireless_uart_send_buff
*DEL*:00000000H   CODE     ---       wireless_uart_send_byte
*SFR* 000000E9H   DATA     BYTE      WTST
      00000E04H   EDATA    FLOAT     X_acc
      00000E12H   EDATA    FLOAT     X_gyro
      00000E08H   EDATA    FLOAT     Y_acc
      00000E16H   EDATA    FLOAT     Y_gyro
      00000DFCH   EDATA    FLOAT     yaw
      00FF9B44H   CODE     ---       yaw_error
      00000E0CH   EDATA    FLOAT     Z_acc
      00000E1AH   EDATA    FLOAT     Z_gyro
      0000043EH   EDATA    BYTE      zebra_count_stop
      00000B3CH   EDATA    WORD      zebra_distence
      00000419H   EDATA    BYTE      zebra_flag
      00FF97ABH   CODE     ---       zebra_stop
      000018C7H   EDATA    WORD      zf_delay_ms
      000018C9H   EDATA    WORD      zf_delay_us
      00FF4E2EH   CODE     ---       zf_sprintf



UNRESOLVED EXTERNAL SYMBOLS:
   displa_0



SYMBOL TABLE OF MODULE:  .\Out_File\SEEKFREE (board)

      VALUE       REP       CLASS    TYPE      SYMBOL NAME
      ====================================================
      ---         MODULE    ---      ---       board
      00FF0006H   PUBLIC    CODE     ---       EnableGlobalIRQ
      00FF9C37H   PUBLIC    CODE     ---       board_init
      00FFA608H   PUBLIC    CODE     ---       clock_init
      00FFA653H   PUBLIC    CODE     ---       ICacheOn
      00FF548FH   PUBLIC    CODE     ---       set_clk
      00FFA62FH   PUBLIC    CODE     ---       putchar
      000018BBH   PUBLIC    EDATA    LONG      sys_clk
      00000094H   SFRSYM    DATA     BYTE      P0M0
      000000D0H   SFRSYM    DATA     BYTE      PSW
      0000009DH   SFRSYM    DATA     BYTE      IRCBAND
      00000097H   SFRSYM    DATA     BYTE      AUXR2
      000000EFH   SFRSYM    DATA     BYTE      AUXINTIF
L251 LINKER/LOCATER V4.66.93.0                                                        12/27/2024  03:02:31  PAGE 35


      000000FDH   SFRSYM    DATA     BYTE      S4CON
      000000ACH   SFRSYM    DATA     BYTE      S3CON
      0000009AH   SFRSYM    DATA     BYTE      S2CON
      000000A6H   SFRSYM    DATA     BYTE      VRTRIM
      000000B7H   SFRSYM    DATA     BYTE      IPH
      000000CDH   SFRSYM    DATA     BYTE      SPSTAT
      000000DDH   SFRSYM    DATA     BYTE      T4T3M
      0000009FH   SFRSYM    DATA     BYTE      IRTRIM
      000000C1H   SFRSYM    DATA     BYTE      WDT_CONTR
      000000E9H   SFRSYM    DATA     BYTE      WTST
      000000DFH   SFRSYM    DATA     BYTE      IP3
      000000F4H   SFRSYM    DATA     BYTE      USBCON
      000000B5H   SFRSYM    DATA     BYTE      IP2
      000000FFH   SFRSYM    DATA     BYTE      RSTCFG
      000000C7H   SFRSYM    DATA     BYTE      IAP_CONTR
      000000F9H   SFRSYM    DATA     BYTE      LINICR
      0000008EH   SFRSYM    DATA     BYTE      AUXR
      000000AFH   SFRSYM    DATA     BYTE      IE2
      00000088H   SFRSYM    DATA     BYTE      TCON
      00000089H   SFRSYM    DATA     BYTE      TMOD
      00000098H   SFRSYM    DATA     BYTE      SCON
      000000F1H   SFRSYM    DATA     BYTE      CANICR
      00000087H   SFRSYM    DATA     BYTE      PCON
      000000BCH   SFRSYM    DATA     BYTE      ADC_CONTR
      000000F7H   SFRSYM    DATA     BYTE      ICHECR
      000000E7H   SFRSYM    DATA     BYTE      CMPCR2
      000000E6H   SFRSYM    DATA     BYTE      CMPCR1
      000000DEH   SFRSYM    DATA     BYTE      ADCCFG
      000000B8H   SFRSYM    DATA     BYTE      IP
      0000008FH   SFRSYM    DATA     BYTE      INTCLKO
      000000AEH   SFRSYM    DATA     BYTE      TA
      000000EEH   SFRSYM    DATA     BYTE      IP3H
      000000B6H   SFRSYM    DATA     BYTE      IP2H
      000000A8H   SFRSYM    DATA     BYTE      IE
      000000BBH   SFRSYM    DATA     BYTE      P_SW3
      000000BAH   SFRSYM    DATA     BYTE      P_SW2
      000000A2H   SFRSYM    DATA     BYTE      P_SW1
      000000CEH   SFRSYM    DATA     BYTE      SPCTL
      000000F8H   SFRSYM    DATA     BYTE      P7
      000000A8H.7 SFRSYM    DATA     BIT       EA
      000000E8H   SFRSYM    DATA     BYTE      P6
      000000C8H   SFRSYM    DATA     BYTE      P5
      000000C0H   SFRSYM    DATA     BYTE      P4
      000000C9H   SFRSYM    DATA     BYTE      P5M1
      000000B0H   SFRSYM    DATA     BYTE      P3
      000000B3H   SFRSYM    DATA     BYTE      P4M1
      000000CAH   SFRSYM    DATA     BYTE      P5M0
      000000A0H   SFRSYM    DATA     BYTE      P2
      000000B1H   SFRSYM    DATA     BYTE      P3M1
      000000B4H   SFRSYM    DATA     BYTE      P4M0
      00000090H   SFRSYM    DATA     BYTE      P1
      00000095H   SFRSYM    DATA     BYTE      P2M1
      000000B2H   SFRSYM    DATA     BYTE      P3M0
      00000080H   SFRSYM    DATA     BYTE      P0
      00000091H   SFRSYM    DATA     BYTE      P1M1
      00000096H   SFRSYM    DATA     BYTE      P2M0
      00000092H   SFRSYM    DATA     BYTE      P1M0
      00000093H   SFRSYM    DATA     BYTE      P0M1

      00FF548FH   BLOCK     CODE     ---       LVL=0
      00001713H   SYMBOL    EDATA    DWORD     clock
      00FF5493H   BLOCK     CODE     NEAR LAB  LVL=1
      00001717H   SYMBOL    EDATA    DWORD     temp_sys_clk
      ---         BLOCKEND  ---      ---       LVL=1
      00FF548FH   LINE      CODE     ---       #35
L251 LINKER/LOCATER V4.66.93.0                                                        12/27/2024  03:02:31  PAGE 36


      00FF5493H   LINE      CODE     ---       #36
      00FF5493H   LINE      CODE     ---       #37
      00FF5499H   LINE      CODE     ---       #40
      00FF557AH   LINE      CODE     ---       #42
      00FF557AH   LINE      CODE     ---       #44
      00FF5587H   LINE      CODE     ---       #45
      00FF5594H   LINE      CODE     ---       #46
      00FF55A1H   LINE      CODE     ---       #47
      00FF55A5H   LINE      CODE     ---       #48
      00FF55A8H   LINE      CODE     ---       #49
      00FF55A9H   LINE      CODE     ---       #50
      00FF55AAH   LINE      CODE     ---       #51
      00FF55ABH   LINE      CODE     ---       #52
      00FF55ACH   LINE      CODE     ---       #53
      00FF55B9H   LINE      CODE     ---       #54
      00FF55C1H   LINE      CODE     ---       #55
      00FF55C4H   LINE      CODE     ---       #57
      00FF55C4H   LINE      CODE     ---       #59
      00FF55D1H   LINE      CODE     ---       #60
      00FF55DEH   LINE      CODE     ---       #61
      00FF55EBH   LINE      CODE     ---       #62
      00FF55EFH   LINE      CODE     ---       #63
      00FF55F2H   LINE      CODE     ---       #64
      00FF55F3H   LINE      CODE     ---       #65
      00FF55F4H   LINE      CODE     ---       #66
      00FF55F5H   LINE      CODE     ---       #67
      00FF55F6H   LINE      CODE     ---       #68
      00FF5603H   LINE      CODE     ---       #69
      00FF560BH   LINE      CODE     ---       #70
      00FF560EH   LINE      CODE     ---       #72
      00FF560EH   LINE      CODE     ---       #74
      00FF561BH   LINE      CODE     ---       #75
      00FF5628H   LINE      CODE     ---       #76
      00FF5635H   LINE      CODE     ---       #77
      00FF5639H   LINE      CODE     ---       #78
      00FF563CH   LINE      CODE     ---       #79
      00FF563DH   LINE      CODE     ---       #80
      00FF563EH   LINE      CODE     ---       #81
      00FF563FH   LINE      CODE     ---       #82
      00FF5640H   LINE      CODE     ---       #83
      00FF564DH   LINE      CODE     ---       #84
      00FF5655H   LINE      CODE     ---       #85
      00FF5658H   LINE      CODE     ---       #87
      00FF5658H   LINE      CODE     ---       #89
      00FF5665H   LINE      CODE     ---       #90
      00FF5672H   LINE      CODE     ---       #91
      00FF567FH   LINE      CODE     ---       #92
      00FF5683H   LINE      CODE     ---       #93
      00FF5684H   LINE      CODE     ---       #94
      00FF5685H   LINE      CODE     ---       #95
      00FF5686H   LINE      CODE     ---       #96
      00FF5687H   LINE      CODE     ---       #97
      00FF568AH   LINE      CODE     ---       #98
      00FF5697H   LINE      CODE     ---       #99
      00FF569FH   LINE      CODE     ---       #100
      00FF56A2H   LINE      CODE     ---       #102
      00FF56A2H   LINE      CODE     ---       #104
      00FF56AFH   LINE      CODE     ---       #105
      00FF56BCH   LINE      CODE     ---       #106
      00FF56C9H   LINE      CODE     ---       #107
      00FF56CDH   LINE      CODE     ---       #108
      00FF56D0H   LINE      CODE     ---       #109
      00FF56D1H   LINE      CODE     ---       #110
      00FF56D2H   LINE      CODE     ---       #111
      00FF56D3H   LINE      CODE     ---       #112
L251 LINKER/LOCATER V4.66.93.0                                                        12/27/2024  03:02:31  PAGE 37


      00FF56D4H   LINE      CODE     ---       #113
      00FF56E1H   LINE      CODE     ---       #114
      00FF56E9H   LINE      CODE     ---       #115
      00FF56ECH   LINE      CODE     ---       #117
      00FF56ECH   LINE      CODE     ---       #119
      00FF56F9H   LINE      CODE     ---       #120
      00FF5706H   LINE      CODE     ---       #121
      00FF5713H   LINE      CODE     ---       #122
      00FF5717H   LINE      CODE     ---       #123
      00FF571AH   LINE      CODE     ---       #124
      00FF571BH   LINE      CODE     ---       #125
      00FF571CH   LINE      CODE     ---       #126
      00FF571DH   LINE      CODE     ---       #127
      00FF571EH   LINE      CODE     ---       #128
      00FF572BH   LINE      CODE     ---       #129
      00FF5733H   LINE      CODE     ---       #130
      00FF5736H   LINE      CODE     ---       #132
      00FF5736H   LINE      CODE     ---       #134
      00FF5743H   LINE      CODE     ---       #135
      00FF5750H   LINE      CODE     ---       #136
      00FF575DH   LINE      CODE     ---       #137
      00FF5761H   LINE      CODE     ---       #138
      00FF5764H   LINE      CODE     ---       #139
      00FF5765H   LINE      CODE     ---       #140
      00FF5766H   LINE      CODE     ---       #141
      00FF5767H   LINE      CODE     ---       #142
      00FF5768H   LINE      CODE     ---       #143
      00FF5775H   LINE      CODE     ---       #144
      00FF577DH   LINE      CODE     ---       #145
      00FF5780H   LINE      CODE     ---       #147
      00FF5780H   LINE      CODE     ---       #149
      00FF578DH   LINE      CODE     ---       #150
      00FF579AH   LINE      CODE     ---       #151
      00FF57A7H   LINE      CODE     ---       #152
      00FF57ABH   LINE      CODE     ---       #153
      00FF57AEH   LINE      CODE     ---       #154
      00FF57AFH   LINE      CODE     ---       #155
      00FF57B0H   LINE      CODE     ---       #156
      00FF57B1H   LINE      CODE     ---       #157
      00FF57B2H   LINE      CODE     ---       #158
      00FF57BFH   LINE      CODE     ---       #159
      00FF57C7H   LINE      CODE     ---       #160
      00FF57CAH   LINE      CODE     ---       #162
      00FF57CAH   LINE      CODE     ---       #164
      00FF57D7H   LINE      CODE     ---       #165
      00FF57E4H   LINE      CODE     ---       #166
      00FF57F1H   LINE      CODE     ---       #167
      00FF57F5H   LINE      CODE     ---       #168
      00FF57F8H   LINE      CODE     ---       #169
      00FF57F9H   LINE      CODE     ---       #170
      00FF57FAH   LINE      CODE     ---       #171
      00FF57FBH   LINE      CODE     ---       #172
      00FF57FCH   LINE      CODE     ---       #173
      00FF5809H   LINE      CODE     ---       #174
      00FF5811H   LINE      CODE     ---       #175
      00FF5814H   LINE      CODE     ---       #177
      00FF5814H   LINE      CODE     ---       #179
      00FF5821H   LINE      CODE     ---       #180
      00FF582EH   LINE      CODE     ---       #181
      00FF583BH   LINE      CODE     ---       #182
      00FF583FH   LINE      CODE     ---       #183
      00FF5842H   LINE      CODE     ---       #184
      00FF5843H   LINE      CODE     ---       #185
      00FF5844H   LINE      CODE     ---       #186
      00FF5845H   LINE      CODE     ---       #187
L251 LINKER/LOCATER V4.66.93.0                                                        12/27/2024  03:02:31  PAGE 38


      00FF5846H   LINE      CODE     ---       #188
      00FF5853H   LINE      CODE     ---       #189
      00FF585BH   LINE      CODE     ---       #190
      00FF585EH   LINE      CODE     ---       #192
      00FF585EH   LINE      CODE     ---       #194
      00FF586BH   LINE      CODE     ---       #195
      00FF5878H   LINE      CODE     ---       #196
      00FF5885H   LINE      CODE     ---       #197
      00FF5889H   LINE      CODE     ---       #198
      00FF588DH   LINE      CODE     ---       #199
      00FF588EH   LINE      CODE     ---       #200
      00FF588FH   LINE      CODE     ---       #201
      00FF5890H   LINE      CODE     ---       #202
      00FF5891H   LINE      CODE     ---       #203
      00FF589EH   LINE      CODE     ---       #204
      00FF58A6H   LINE      CODE     ---       #205
      00FF58A9H   LINE      CODE     ---       #207
      00FF58A9H   LINE      CODE     ---       #209
      00FF58B6H   LINE      CODE     ---       #210
      00FF58C3H   LINE      CODE     ---       #211
      00FF58D0H   LINE      CODE     ---       #212
      00FF58D4H   LINE      CODE     ---       #213
      00FF58D8H   LINE      CODE     ---       #214
      00FF58D9H   LINE      CODE     ---       #215
      00FF58DAH   LINE      CODE     ---       #216
      00FF58DBH   LINE      CODE     ---       #217
      00FF58DCH   LINE      CODE     ---       #218
      00FF58E9H   LINE      CODE     ---       #219
      00FF58F1H   LINE      CODE     ---       #220
      00FF58F4H   LINE      CODE     ---       #222
      00FF58F4H   LINE      CODE     ---       #224
      00FF5901H   LINE      CODE     ---       #225
      00FF590EH   LINE      CODE     ---       #226
      00FF591BH   LINE      CODE     ---       #227
      00FF591FH   LINE      CODE     ---       #228
      00FF5923H   LINE      CODE     ---       #229
      00FF5924H   LINE      CODE     ---       #230
      00FF5925H   LINE      CODE     ---       #231
      00FF5926H   LINE      CODE     ---       #232
      00FF5927H   LINE      CODE     ---       #233
      00FF5934H   LINE      CODE     ---       #234
      00FF593CH   LINE      CODE     ---       #235
      00FF593FH   LINE      CODE     ---       #237
      00FF593FH   LINE      CODE     ---       #239
      00FF594CH   LINE      CODE     ---       #240
      00FF5959H   LINE      CODE     ---       #241
      00FF5966H   LINE      CODE     ---       #242
      00FF596AH   LINE      CODE     ---       #243
      00FF596EH   LINE      CODE     ---       #244
      00FF596FH   LINE      CODE     ---       #245
      00FF5970H   LINE      CODE     ---       #246
      00FF5971H   LINE      CODE     ---       #247
      00FF5972H   LINE      CODE     ---       #248
      00FF597FH   LINE      CODE     ---       #249
      00FF5987H   LINE      CODE     ---       #250
      00FF598AH   LINE      CODE     ---       #252
      00FF598AH   LINE      CODE     ---       #254
      00FF5997H   LINE      CODE     ---       #255
      00FF59A4H   LINE      CODE     ---       #256
      00FF59B1H   LINE      CODE     ---       #257
      00FF59B5H   LINE      CODE     ---       #258
      00FF59B9H   LINE      CODE     ---       #259
      00FF59BAH   LINE      CODE     ---       #260
      00FF59BBH   LINE      CODE     ---       #261
      00FF59BCH   LINE      CODE     ---       #262
L251 LINKER/LOCATER V4.66.93.0                                                        12/27/2024  03:02:31  PAGE 39


      00FF59BDH   LINE      CODE     ---       #263
      00FF59CAH   LINE      CODE     ---       #264
      00FF59D2H   LINE      CODE     ---       #265
      00FF59D5H   LINE      CODE     ---       #267
      00FF59D5H   LINE      CODE     ---       #269
      00FF59E2H   LINE      CODE     ---       #270
      00FF59EFH   LINE      CODE     ---       #271
      00FF59FCH   LINE      CODE     ---       #272
      00FF5A00H   LINE      CODE     ---       #273
      00FF5A04H   LINE      CODE     ---       #274
      00FF5A05H   LINE      CODE     ---       #275
      00FF5A06H   LINE      CODE     ---       #276
      00FF5A07H   LINE      CODE     ---       #277
      00FF5A08H   LINE      CODE     ---       #278
      00FF5A15H   LINE      CODE     ---       #279
      00FF5A1DH   LINE      CODE     ---       #280
      00FF5A20H   LINE      CODE     ---       #282
      00FF5A20H   LINE      CODE     ---       #284
      00FF5A2DH   LINE      CODE     ---       #285
      00FF5A3AH   LINE      CODE     ---       #286
      00FF5A47H   LINE      CODE     ---       #287
      00FF5A4BH   LINE      CODE     ---       #288
      00FF5A4FH   LINE      CODE     ---       #289
      00FF5A50H   LINE      CODE     ---       #290
      00FF5A51H   LINE      CODE     ---       #291
      00FF5A52H   LINE      CODE     ---       #292
      00FF5A53H   LINE      CODE     ---       #293
      00FF5A60H   LINE      CODE     ---       #294
      00FF5A68H   LINE      CODE     ---       #295
      00FF5A6AH   LINE      CODE     ---       #307
      00FF5A6AH   LINE      CODE     ---       #309
      00FF5A77H   LINE      CODE     ---       #310
      00FF5A84H   LINE      CODE     ---       #311
      00FF5A91H   LINE      CODE     ---       #312
      00FF5A95H   LINE      CODE     ---       #313
      00FF5A99H   LINE      CODE     ---       #314
      00FF5A9AH   LINE      CODE     ---       #315
      00FF5A9BH   LINE      CODE     ---       #316
      00FF5A9CH   LINE      CODE     ---       #317
      00FF5A9DH   LINE      CODE     ---       #318
      00FF5AAAH   LINE      CODE     ---       #319
      00FF5AB6H   LINE      CODE     ---       #320
      00FF5AB6H   LINE      CODE     ---       #321
      00FF5AB6H   LINE      CODE     ---       #323
      00FF5ABAH   LINE      CODE     ---       #324
      ---         BLOCKEND  ---      ---       LVL=0

      00FFA62FH   BLOCK     CODE     ---       LVL=0
      000019EFH   SYMBOL    EDATA    CHAR      c
      00FFA62FH   LINE      CODE     ---       #333
      00FFA633H   LINE      CODE     ---       #335
      00FFA63CH   LINE      CODE     ---       #337
      00FFA640H   LINE      CODE     ---       #338
      ---         BLOCKEND  ---      ---       LVL=0

      00FF0006H   BLOCK     CODE     ---       LVL=0
      00FF0006H   LINE      CODE     ---       #347
      00FF0006H   LINE      CODE     ---       #349
      00FF0009H   LINE      CODE     ---       #350
      ---         BLOCKEND  ---      ---       LVL=0

      00FFA653H   BLOCK     CODE     ---       LVL=0
      00FFA653H   LINE      CODE     ---       #385
      00FFA653H   LINE      CODE     ---       #387
      00FFA654H   LINE      CODE     ---       #388
L251 LINKER/LOCATER V4.66.93.0                                                        12/27/2024  03:02:31  PAGE 40


      00FFA655H   LINE      CODE     ---       #389
      00FFA659H   LINE      CODE     ---       #391
      00FFA65DH   LINE      CODE     ---       #393
      00FFA661H   LINE      CODE     ---       #395
      00FFA662H   LINE      CODE     ---       #396
      00FFA663H   LINE      CODE     ---       #397
      ---         BLOCKEND  ---      ---       LVL=0

      00FFA608H   BLOCK     CODE     ---       LVL=0
      000018BFH   SYMBOL    EDATA    DWORD     clock
      00FFA608H   LINE      CODE     ---       #399
      00FFA60CH   LINE      CODE     ---       #401
      00FFA610H   LINE      CODE     ---       #409
      00FFA61BH   LINE      CODE     ---       #413
      ---         BLOCKEND  ---      ---       LVL=0

      00FF9C37H   BLOCK     CODE     ---       LVL=0
      00FF9C37H   LINE      CODE     ---       #416
      00FF9C37H   LINE      CODE     ---       #419
      00FF9C3AH   LINE      CODE     ---       #422
      00FF9C3DH   LINE      CODE     ---       #423
      00FF9C40H   LINE      CODE     ---       #424
      00FF9C43H   LINE      CODE     ---       #425
      00FF9C46H   LINE      CODE     ---       #426
      00FF9C49H   LINE      CODE     ---       #427
      00FF9C4CH   LINE      CODE     ---       #428
      00FF9C4FH   LINE      CODE     ---       #429
      00FF9C52H   LINE      CODE     ---       #430
      00FF9C55H   LINE      CODE     ---       #431
      00FF9C58H   LINE      CODE     ---       #432
      00FF9C5BH   LINE      CODE     ---       #433
      00FF9C5EH   LINE      CODE     ---       #452
      00FF9C61H   LINE      CODE     ---       #454
      00FF9C71H   LINE      CODE     ---       #459
      00FF9C74H   LINE      CODE     ---       #460
      00FF9C74H   LINE      CODE     ---       #464
      00FF9C77H   LINE      CODE     ---       #465
      00FF9C7AH   LINE      CODE     ---       #466
      00FF9C7DH   LINE      CODE     ---       #467
      00FF9C80H   LINE      CODE     ---       #468
      00FF9C83H   LINE      CODE     ---       #469
      00FF9C86H   LINE      CODE     ---       #470
      00FF9C89H   LINE      CODE     ---       #471
      00FF9C8CH   LINE      CODE     ---       #472
      00FF9C8FH   LINE      CODE     ---       #474
      00FF9CAAH   LINE      CODE     ---       #475
      00FF9CADH   LINE      CODE     ---       #476
      ---         BLOCKEND  ---      ---       LVL=0

      ---         MODULE    ---      ---       common
      00001985H   PUBLIC    EDATA    INT       wireless_type
      000000D0H   SFRSYM    DATA     BYTE      PSW
      0000009DH   SFRSYM    DATA     BYTE      IRCBAND
      00000097H   SFRSYM    DATA     BYTE      AUXR2
      000000EFH   SFRSYM    DATA     BYTE      AUXINTIF
      000000FDH   SFRSYM    DATA     BYTE      S4CON
      000000ACH   SFRSYM    DATA     BYTE      S3CON
      0000009AH   SFRSYM    DATA     BYTE      S2CON
      000000B7H   SFRSYM    DATA     BYTE      IPH
      000000CDH   SFRSYM    DATA     BYTE      SPSTAT
      000000DDH   SFRSYM    DATA     BYTE      T4T3M
      000000C1H   SFRSYM    DATA     BYTE      WDT_CONTR
      000000DFH   SFRSYM    DATA     BYTE      IP3
      000000F4H   SFRSYM    DATA     BYTE      USBCON
      000000B5H   SFRSYM    DATA     BYTE      IP2
L251 LINKER/LOCATER V4.66.93.0                                                        12/27/2024  03:02:31  PAGE 41


      000000FFH   SFRSYM    DATA     BYTE      RSTCFG
      000000C7H   SFRSYM    DATA     BYTE      IAP_CONTR
      000000F9H   SFRSYM    DATA     BYTE      LINICR
      0000008EH   SFRSYM    DATA     BYTE      AUXR
      000000AFH   SFRSYM    DATA     BYTE      IE2
      00000088H   SFRSYM    DATA     BYTE      TCON
      00000089H   SFRSYM    DATA     BYTE      TMOD
      00000098H   SFRSYM    DATA     BYTE      SCON
      000000F1H   SFRSYM    DATA     BYTE      CANICR
      00000087H   SFRSYM    DATA     BYTE      PCON
      000000BCH   SFRSYM    DATA     BYTE      ADC_CONTR
      000000E7H   SFRSYM    DATA     BYTE      CMPCR2
      000000E6H   SFRSYM    DATA     BYTE      CMPCR1
      000000DEH   SFRSYM    DATA     BYTE      ADCCFG
      000000B8H   SFRSYM    DATA     BYTE      IP
      0000008FH   SFRSYM    DATA     BYTE      INTCLKO
      000000EEH   SFRSYM    DATA     BYTE      IP3H
      000000B6H   SFRSYM    DATA     BYTE      IP2H
      000000A8H   SFRSYM    DATA     BYTE      IE
      000000BBH   SFRSYM    DATA     BYTE      P_SW3
      000000BAH   SFRSYM    DATA     BYTE      P_SW2
      000000A2H   SFRSYM    DATA     BYTE      P_SW1
      000000CEH   SFRSYM    DATA     BYTE      SPCTL
      000000F8H   SFRSYM    DATA     BYTE      P7
      000000E8H   SFRSYM    DATA     BYTE      P6
      000000C8H   SFRSYM    DATA     BYTE      P5
      000000C0H   SFRSYM    DATA     BYTE      P4
      000000B0H   SFRSYM    DATA     BYTE      P3
      000000A0H   SFRSYM    DATA     BYTE      P2
      00000090H   SFRSYM    DATA     BYTE      P1
      00000080H   SFRSYM    DATA     BYTE      P0

      ---         MODULE    ---      ---       STC32F_FPMU
      00FFA674H   PUBLIC    CODE     ---       ?C?CASTF
      00FFA67AH   PUBLIC    CODE     ---       ?C?FCASTC
      00FFA680H   PUBLIC    CODE     ---       ?C?FCASTI
      00FF005EH   PUBLIC    CODE     ---       ?C?FCASTL
      00FF000EH   PUBLIC    CODE     ---       ?C?FPADD
      00FF0046H   PUBLIC    CODE     ---       ?C?FPCMP3
      00FF0056H   PUBLIC    CODE     ---       ?C?FPDIV
      00FF001EH   PUBLIC    CODE     ---       ?C?FPMUL
      00FFA66DH   PUBLIC    CODE     ---       ?C?FPNEG
      00FF0016H   PUBLIC    CODE     ---       ?C?FPSUB
      000000E0H   SFRSYM    DATA     BYTE      ACC
      000000EDH   SFRSYM    DATA     BYTE      DMAIR
      00000083H   SFRSYM    DATA     BYTE      DPH
      00000082H   SFRSYM    DATA     BYTE      DPL
      0000001CH   SYMBOL    NUMBER   ---       DMA_FPADD
      00000030H   SYMBOL    NUMBER   ---       DMA_FPATAN
      00000027H   SYMBOL    NUMBER   ---       DMA_FPCLD
      00000032H   SYMBOL    NUMBER   ---       DMA_FPCLEX
      00000021H   SYMBOL    NUMBER   ---       DMA_FPCMP
      0000002EH   SYMBOL    NUMBER   ---       DMA_FPCOS
      00000035H   SYMBOL    NUMBER   ---       DMA_FPCRR
      00000036H   SYMBOL    NUMBER   ---       DMA_FPCRW
      00000023H   SYMBOL    NUMBER   ---       DMA_FPCST
      0000001FH   SYMBOL    NUMBER   ---       DMA_FPDIV
      00000028H   SYMBOL    NUMBER   ---       DMA_FPILD
      00000031H   SYMBOL    NUMBER   ---       DMA_FPINIT
      00000024H   SYMBOL    NUMBER   ---       DMA_FPIST
      00000029H   SYMBOL    NUMBER   ---       DMA_FPLLD
      00000025H   SYMBOL    NUMBER   ---       DMA_FPLST
      0000001EH   SYMBOL    NUMBER   ---       DMA_FPMUL
      0000002DH   SYMBOL    NUMBER   ---       DMA_FPSIN
      00000020H   SYMBOL    NUMBER   ---       DMA_FPSQRT
L251 LINKER/LOCATER V4.66.93.0                                                        12/27/2024  03:02:31  PAGE 42


      00000033H   SYMBOL    NUMBER   ---       DMA_FPSRR
      00000034H   SYMBOL    NUMBER   ---       DMA_FPSRW
      0000001DH   SYMBOL    NUMBER   ---       DMA_FPSUB
      0000002FH   SYMBOL    NUMBER   ---       DMA_FPTAN
      00000022H   SYMBOL    NUMBER   ---       DMA_FPXAM
      00000001H   SYMBOL    NUMBER   ---       FP_CONV_EN
      00000001H   SYMBOL    NUMBER   ---       FP_REGS_EN
      00000001H   SYMBOL    NUMBER   ---       FP_TRIG_EN

      00FF000EH   BLOCK     CODE     NEAR LAB  LVL=0
      00FF000EH   LINE      CODE     ---       #62
      00FF0011H   LINE      CODE     ---       #63
      ---         BLOCKEND  ---      ---       LVL=0

      00FF0016H   BLOCK     CODE     NEAR LAB  LVL=0
      00FF0016H   LINE      CODE     ---       #72
      00FF0019H   LINE      CODE     ---       #73
      ---         BLOCKEND  ---      ---       LVL=0

      00FF001EH   BLOCK     CODE     NEAR LAB  LVL=0
      00FF001EH   LINE      CODE     ---       #82
      00FF0021H   LINE      CODE     ---       #83
      ---         BLOCKEND  ---      ---       LVL=0

      00FF0056H   BLOCK     CODE     NEAR LAB  LVL=0
      00FF0056H   LINE      CODE     ---       #92
      00FF0059H   LINE      CODE     ---       #93
      ---         BLOCKEND  ---      ---       LVL=0

      00FF0046H   BLOCK     CODE     NEAR LAB  LVL=0
      00FF0046H   LINE      CODE     ---       #113
      00FF0049H   LINE      CODE     ---       #114
      00FF004BH   LINE      CODE     ---       #115
      00FF004DH   LINE      CODE     ---       #116
      00FF004FH   LINE      CODE     ---       #117
      00FF0051H   LINE      CODE     ---       #118
      ---         BLOCKEND  ---      ---       LVL=0

      00FFA66DH   BLOCK     CODE     NEAR LAB  LVL=0
      00FFA66DH   LINE      CODE     ---       #138
      00FFA66FH   LINE      CODE     ---       #139
      00FFA671H   LINE      CODE     ---       #140
      00FFA673H   LINE      CODE     ---       #141
      ---         BLOCKEND  ---      ---       LVL=0

      00FFA674H   BLOCK     CODE     NEAR LAB  LVL=0
      00FFA674H   LINE      CODE     ---       #213
      00FFA677H   LINE      CODE     ---       #214
      00FFA679H   LINE      CODE     ---       #215
      ---         BLOCKEND  ---      ---       LVL=0

      00FFA67AH   BLOCK     CODE     NEAR LAB  LVL=0
      00FFA67AH   LINE      CODE     ---       #224
      00FFA67CH   LINE      CODE     ---       #225
      00FFA67FH   LINE      CODE     ---       #226
      ---         BLOCKEND  ---      ---       LVL=0

      00FFA680H   BLOCK     CODE     NEAR LAB  LVL=0
      00FFA680H   LINE      CODE     ---       #235
      00FFA682H   LINE      CODE     ---       #236
      00FFA685H   LINE      CODE     ---       #237
      ---         BLOCKEND  ---      ---       LVL=0

      00FF005EH   BLOCK     CODE     NEAR LAB  LVL=0
      00FF005EH   LINE      CODE     ---       #246
L251 LINKER/LOCATER V4.66.93.0                                                        12/27/2024  03:02:31  PAGE 43


      00FF0061H   LINE      CODE     ---       #247
      ---         BLOCKEND  ---      ---       LVL=0

      ---         MODULE    ---      ---       zf_adc
      00FFA08AH   PUBLIC    CODE     ---       adc_once
      00FF93BBH   PUBLIC    CODE     ---       adc_init
      00000094H   SFRSYM    DATA     BYTE      P0M0
      000000D0H   SFRSYM    DATA     BYTE      PSW
      0000009DH   SFRSYM    DATA     BYTE      IRCBAND
      00000097H   SFRSYM    DATA     BYTE      AUXR2
      000000EFH   SFRSYM    DATA     BYTE      AUXINTIF
      000000FDH   SFRSYM    DATA     BYTE      S4CON
      000000ACH   SFRSYM    DATA     BYTE      S3CON
      0000009AH   SFRSYM    DATA     BYTE      S2CON
      000000B7H   SFRSYM    DATA     BYTE      IPH
      000000CDH   SFRSYM    DATA     BYTE      SPSTAT
      000000BEH   SFRSYM    DATA     BYTE      ADC_RESL
      000000DDH   SFRSYM    DATA     BYTE      T4T3M
      000000C1H   SFRSYM    DATA     BYTE      WDT_CONTR
      000000DFH   SFRSYM    DATA     BYTE      IP3
      000000F4H   SFRSYM    DATA     BYTE      USBCON
      000000B5H   SFRSYM    DATA     BYTE      IP2
      000000FFH   SFRSYM    DATA     BYTE      RSTCFG
      000000C7H   SFRSYM    DATA     BYTE      IAP_CONTR
      000000F9H   SFRSYM    DATA     BYTE      LINICR
      0000008EH   SFRSYM    DATA     BYTE      AUXR
      000000AFH   SFRSYM    DATA     BYTE      IE2
      00000088H   SFRSYM    DATA     BYTE      TCON
      00000089H   SFRSYM    DATA     BYTE      TMOD
      00000098H   SFRSYM    DATA     BYTE      SCON
      000000F1H   SFRSYM    DATA     BYTE      CANICR
      00000087H   SFRSYM    DATA     BYTE      PCON
      000000BCH   SFRSYM    DATA     BYTE      ADC_CONTR
      000000E7H   SFRSYM    DATA     BYTE      CMPCR2
      000000E6H   SFRSYM    DATA     BYTE      CMPCR1
      000000DEH   SFRSYM    DATA     BYTE      ADCCFG
      000000B8H   SFRSYM    DATA     BYTE      IP
      0000008FH   SFRSYM    DATA     BYTE      INTCLKO
      000000EEH   SFRSYM    DATA     BYTE      IP3H
      000000B6H   SFRSYM    DATA     BYTE      IP2H
      000000BDH   SFRSYM    DATA     BYTE      ADC_RES
      000000A8H   SFRSYM    DATA     BYTE      IE
      000000BBH   SFRSYM    DATA     BYTE      P_SW3
      000000BAH   SFRSYM    DATA     BYTE      P_SW2
      000000A2H   SFRSYM    DATA     BYTE      P_SW1
      000000CEH   SFRSYM    DATA     BYTE      SPCTL
      000000F8H   SFRSYM    DATA     BYTE      P7
      000000E8H   SFRSYM    DATA     BYTE      P6
      000000C8H   SFRSYM    DATA     BYTE      P5
      000000C0H   SFRSYM    DATA     BYTE      P4
      000000B0H   SFRSYM    DATA     BYTE      P3
      000000A0H   SFRSYM    DATA     BYTE      P2
      00000090H   SFRSYM    DATA     BYTE      P1
      00000080H   SFRSYM    DATA     BYTE      P0
      00000091H   SFRSYM    DATA     BYTE      P1M1
      00000092H   SFRSYM    DATA     BYTE      P1M0
      00000093H   SFRSYM    DATA     BYTE      P0M1

      00FF93BBH   BLOCK     CODE     ---       LVL=0
      000018C3H   SYMBOL    EDATA    INT       adcn
      000018C5H   SYMBOL    EDATA    INT       speed
      00FF93BBH   LINE      CODE     ---       #32
      00FF93C3H   LINE      CODE     ---       #34
      00FF93C6H   LINE      CODE     ---       #36
      00FF93C9H   LINE      CODE     ---       #37
L251 LINKER/LOCATER V4.66.93.0                                                        12/27/2024  03:02:31  PAGE 44


      00FF93D1H   LINE      CODE     ---       #39
      00FF93E3H   LINE      CODE     ---       #42
      00FF93FEH   LINE      CODE     ---       #43
      00FF9417H   LINE      CODE     ---       #44
      00FF9419H   LINE      CODE     ---       #45
      00FF9429H   LINE      CODE     ---       #48
      00FF9444H   LINE      CODE     ---       #49
      00FF945DH   LINE      CODE     ---       #50
      00FF945DH   LINE      CODE     ---       #52
      00FF946CH   LINE      CODE     ---       #54
      00FF946FH   LINE      CODE     ---       #55
      ---         BLOCKEND  ---      ---       LVL=0

      00FFA08AH   BLOCK     CODE     ---       LVL=0
      000017DBH   SYMBOL    EDATA    INT       adcn
      000017DDH   SYMBOL    EDATA    INT       resolution
      00FFA092H   BLOCK     CODE     NEAR LAB  LVL=1
      000017DFH   SYMBOL    EDATA    WORD      adc_value
      ---         BLOCKEND  ---      ---       LVL=1
      00FFA08AH   LINE      CODE     ---       #66
      00FFA092H   LINE      CODE     ---       #67
      00FFA092H   LINE      CODE     ---       #70
      00FFA095H   LINE      CODE     ---       #71
      00FFA09DH   LINE      CODE     ---       #73
      00FFA0A0H   LINE      CODE     ---       #74
      00FFA0A5H   LINE      CODE     ---       #75
      00FFA0A8H   LINE      CODE     ---       #77
      00FFA0B0H   LINE      CODE     ---       #78
      00FFA0B8H   LINE      CODE     ---       #79
      00FFA0C6H   LINE      CODE     ---       #81
      00FFA0C9H   LINE      CODE     ---       #82
      00FFA0CCH   LINE      CODE     ---       #84
      00FFA0DFH   LINE      CODE     ---       #87
      00FFA0DFH   LINE      CODE     ---       #88
      ---         BLOCKEND  ---      ---       LVL=0

      ---         MODULE    ---      ---       zf_delay
      00FFA463H   PUBLIC    CODE     ---       delay_init
      00FFA366H   PUBLIC    CODE     ---       delay_ms
      000018C7H   PUBLIC    EDATA    WORD      zf_delay_ms
      000018C9H   PUBLIC    EDATA    WORD      zf_delay_us
      000000D0H   SFRSYM    DATA     BYTE      PSW
      0000009DH   SFRSYM    DATA     BYTE      IRCBAND
      00000097H   SFRSYM    DATA     BYTE      AUXR2
      000000EFH   SFRSYM    DATA     BYTE      AUXINTIF
      000000FDH   SFRSYM    DATA     BYTE      S4CON
      000000ACH   SFRSYM    DATA     BYTE      S3CON
      0000009AH   SFRSYM    DATA     BYTE      S2CON
      000000B7H   SFRSYM    DATA     BYTE      IPH
      000000CDH   SFRSYM    DATA     BYTE      SPSTAT
      000000DDH   SFRSYM    DATA     BYTE      T4T3M
      000000C1H   SFRSYM    DATA     BYTE      WDT_CONTR
      000000DFH   SFRSYM    DATA     BYTE      IP3
      000000F4H   SFRSYM    DATA     BYTE      USBCON
      000000B5H   SFRSYM    DATA     BYTE      IP2
      000000FFH   SFRSYM    DATA     BYTE      RSTCFG
      000000C7H   SFRSYM    DATA     BYTE      IAP_CONTR
      000000F9H   SFRSYM    DATA     BYTE      LINICR
      0000008EH   SFRSYM    DATA     BYTE      AUXR
      000000AFH   SFRSYM    DATA     BYTE      IE2
      00000088H   SFRSYM    DATA     BYTE      TCON
      00000089H   SFRSYM    DATA     BYTE      TMOD
      00000098H   SFRSYM    DATA     BYTE      SCON
      000000F1H   SFRSYM    DATA     BYTE      CANICR
      00000087H   SFRSYM    DATA     BYTE      PCON
L251 LINKER/LOCATER V4.66.93.0                                                        12/27/2024  03:02:31  PAGE 45


      000000BCH   SFRSYM    DATA     BYTE      ADC_CONTR
      000000E7H   SFRSYM    DATA     BYTE      CMPCR2
      000000E6H   SFRSYM    DATA     BYTE      CMPCR1
      000000DEH   SFRSYM    DATA     BYTE      ADCCFG
      000000B8H   SFRSYM    DATA     BYTE      IP
      0000008FH   SFRSYM    DATA     BYTE      INTCLKO
      000000EEH   SFRSYM    DATA     BYTE      IP3H
      000000B6H   SFRSYM    DATA     BYTE      IP2H
      000000A8H   SFRSYM    DATA     BYTE      IE
      000000BBH   SFRSYM    DATA     BYTE      P_SW3
      000000BAH   SFRSYM    DATA     BYTE      P_SW2
      000000A2H   SFRSYM    DATA     BYTE      P_SW1
      000000CEH   SFRSYM    DATA     BYTE      SPCTL
      000000F8H   SFRSYM    DATA     BYTE      P7
      000000E8H   SFRSYM    DATA     BYTE      P6
      000000C8H   SFRSYM    DATA     BYTE      P5
      000000C0H   SFRSYM    DATA     BYTE      P4
      000000B0H   SFRSYM    DATA     BYTE      P3
      000000A0H   SFRSYM    DATA     BYTE      P2
      00000090H   SFRSYM    DATA     BYTE      P1
      00000080H   SFRSYM    DATA     BYTE      P0

      00FFA463H   BLOCK     CODE     ---       LVL=0
      00FFA463H   LINE      CODE     ---       #34
      00FFA463H   LINE      CODE     ---       #36
      00FFA472H   LINE      CODE     ---       #37
      00FFA485H   LINE      CODE     ---       #38
      ---         BLOCKEND  ---      ---       LVL=0

      00FFA366H   BLOCK     CODE     ---       LVL=0
      000018CBH   SYMBOL    EDATA    WORD      ms
      00FFA36AH   BLOCK     CODE     NEAR LAB  LVL=1
      000018CDH   SYMBOL    EDATA    WORD      i
      ---         BLOCKEND  ---      ---       LVL=1
      00FFA366H   LINE      CODE     ---       #46
      00FFA36AH   LINE      CODE     ---       #47
      00FFA36AH   LINE      CODE     ---       #49
      00FFA36AH   LINE      CODE     ---       #50
      00FFA372H   LINE      CODE     ---       #51
      00FFA386H   LINE      CODE     ---       #52
      00FFA39AH   LINE      CODE     ---       #53
      ---         BLOCKEND  ---      ---       LVL=0
      000017E1H   SYMBOL    EDATA    DWORD     us
      000017E5H   SYMBOL    EDATA    WORD      i

      ---         MODULE    ---      ---       zf_eeprom
      0000156EH   PUBLIC    EDATA    BYTE      ?iap_read_bytes?BYTE
      00001578H   PUBLIC    EDATA    BYTE      ?iap_write_bytes?BYTE
      000000D0H   SFRSYM    DATA     BYTE      PSW
      0000009DH   SFRSYM    DATA     BYTE      IRCBAND
      000000D0H.5 SFRSYM    DATA     BIT       F0
      00000097H   SFRSYM    DATA     BYTE      AUXR2
      000000C6H   SFRSYM    DATA     BYTE      IAP_TRIG
      000000EFH   SFRSYM    DATA     BYTE      AUXINTIF
      000000FDH   SFRSYM    DATA     BYTE      S4CON
      000000ACH   SFRSYM    DATA     BYTE      S3CON
      0000009AH   SFRSYM    DATA     BYTE      S2CON
      000000B7H   SFRSYM    DATA     BYTE      IPH
      000000CDH   SFRSYM    DATA     BYTE      SPSTAT
      000000DDH   SFRSYM    DATA     BYTE      T4T3M
      000000C1H   SFRSYM    DATA     BYTE      WDT_CONTR
      000000C2H   SFRSYM    DATA     BYTE      IAP_DATA
      000000DFH   SFRSYM    DATA     BYTE      IP3
      000000F4H   SFRSYM    DATA     BYTE      USBCON
      000000B5H   SFRSYM    DATA     BYTE      IP2
L251 LINKER/LOCATER V4.66.93.0                                                        12/27/2024  03:02:31  PAGE 46


      000000FFH   SFRSYM    DATA     BYTE      RSTCFG
      000000C7H   SFRSYM    DATA     BYTE      IAP_CONTR
      000000F9H   SFRSYM    DATA     BYTE      LINICR
      0000008EH   SFRSYM    DATA     BYTE      AUXR
      000000AFH   SFRSYM    DATA     BYTE      IE2
      00000088H   SFRSYM    DATA     BYTE      TCON
      00000089H   SFRSYM    DATA     BYTE      TMOD
      00000098H   SFRSYM    DATA     BYTE      SCON
      000000F5H   SFRSYM    DATA     BYTE      IAP_TPS
      000000F1H   SFRSYM    DATA     BYTE      CANICR
      00000087H   SFRSYM    DATA     BYTE      PCON
      000000BCH   SFRSYM    DATA     BYTE      ADC_CONTR
      000000E7H   SFRSYM    DATA     BYTE      CMPCR2
      000000E6H   SFRSYM    DATA     BYTE      CMPCR1
      000000C4H   SFRSYM    DATA     BYTE      IAP_ADDRL
      000000C3H   SFRSYM    DATA     BYTE      IAP_ADDRH
      000000F6H   SFRSYM    DATA     BYTE      IAP_ADDRE
      000000DEH   SFRSYM    DATA     BYTE      ADCCFG
      000000B8H   SFRSYM    DATA     BYTE      IP
      0000008FH   SFRSYM    DATA     BYTE      INTCLKO
      000000EEH   SFRSYM    DATA     BYTE      IP3H
      000000B6H   SFRSYM    DATA     BYTE      IP2H
      000000C5H   SFRSYM    DATA     BYTE      IAP_CMD
      000000A8H   SFRSYM    DATA     BYTE      IE
      000000BBH   SFRSYM    DATA     BYTE      P_SW3
      000000BAH   SFRSYM    DATA     BYTE      P_SW2
      000000A2H   SFRSYM    DATA     BYTE      P_SW1
      000000CEH   SFRSYM    DATA     BYTE      SPCTL
      000000F8H   SFRSYM    DATA     BYTE      P7
      000000A8H.7 SFRSYM    DATA     BIT       EA
      000000E8H   SFRSYM    DATA     BYTE      P6
      000000C8H   SFRSYM    DATA     BYTE      P5
      000000C0H   SFRSYM    DATA     BYTE      P4
      000000B0H   SFRSYM    DATA     BYTE      P3
      000000A0H   SFRSYM    DATA     BYTE      P2
      00000090H   SFRSYM    DATA     BYTE      P1
      00000080H   SFRSYM    DATA     BYTE      P0
      000019F0H   SYMBOL    EDATA    BYTE      write_time
      0000156EH   SYMBOL    EDATA    DWORD     addr
      00001572H   SYMBOL    EDATA    ---       buf
      00001576H   SYMBOL    EDATA    WORD      len
      00001578H   SYMBOL    EDATA    DWORD     addr
      0000157CH   SYMBOL    EDATA    ---       buf
      00001580H   SYMBOL    EDATA    WORD      len
      000018CFH   SYMBOL    EDATA    DWORD     addr

      ---         MODULE    ---      ---       zf_exti
      000000D0H   SFRSYM    DATA     BYTE      PSW
      0000009DH   SFRSYM    DATA     BYTE      IRCBAND
      00000097H   SFRSYM    DATA     BYTE      AUXR2
      000000EFH   SFRSYM    DATA     BYTE      AUXINTIF
      000000FDH   SFRSYM    DATA     BYTE      S4CON
      000000ACH   SFRSYM    DATA     BYTE      S3CON
      0000009AH   SFRSYM    DATA     BYTE      S2CON
      000000B7H   SFRSYM    DATA     BYTE      IPH
      000000CDH   SFRSYM    DATA     BYTE      SPSTAT
      000000DDH   SFRSYM    DATA     BYTE      T4T3M
      000000C1H   SFRSYM    DATA     BYTE      WDT_CONTR
      00000088H.2 SFRSYM    DATA     BIT       IT1
      000000A8H.2 SFRSYM    DATA     BIT       EX1
      00000088H.0 SFRSYM    DATA     BIT       IT0
      000000A8H.0 SFRSYM    DATA     BIT       EX0
      000000DFH   SFRSYM    DATA     BYTE      IP3
      000000F4H   SFRSYM    DATA     BYTE      USBCON
      000000B5H   SFRSYM    DATA     BYTE      IP2
L251 LINKER/LOCATER V4.66.93.0                                                        12/27/2024  03:02:31  PAGE 47


      000000FFH   SFRSYM    DATA     BYTE      RSTCFG
      000000C7H   SFRSYM    DATA     BYTE      IAP_CONTR
      000000F9H   SFRSYM    DATA     BYTE      LINICR
      0000008EH   SFRSYM    DATA     BYTE      AUXR
      000000AFH   SFRSYM    DATA     BYTE      IE2
      00000088H   SFRSYM    DATA     BYTE      TCON
      00000089H   SFRSYM    DATA     BYTE      TMOD
      00000098H   SFRSYM    DATA     BYTE      SCON
      000000F1H   SFRSYM    DATA     BYTE      CANICR
      00000087H   SFRSYM    DATA     BYTE      PCON
      000000BCH   SFRSYM    DATA     BYTE      ADC_CONTR
      000000E7H   SFRSYM    DATA     BYTE      CMPCR2
      000000E6H   SFRSYM    DATA     BYTE      CMPCR1
      000000DEH   SFRSYM    DATA     BYTE      ADCCFG
      000000B8H   SFRSYM    DATA     BYTE      IP
      0000008FH   SFRSYM    DATA     BYTE      INTCLKO
      000000EEH   SFRSYM    DATA     BYTE      IP3H
      000000B6H   SFRSYM    DATA     BYTE      IP2H
      000000A8H   SFRSYM    DATA     BYTE      IE
      000000BBH   SFRSYM    DATA     BYTE      P_SW3
      000000BAH   SFRSYM    DATA     BYTE      P_SW2
      000000A2H   SFRSYM    DATA     BYTE      P_SW1
      000000CEH   SFRSYM    DATA     BYTE      SPCTL
      000000F8H   SFRSYM    DATA     BYTE      P7
      000000E8H   SFRSYM    DATA     BYTE      P6
      000000C8H   SFRSYM    DATA     BYTE      P5
      000000C0H   SFRSYM    DATA     BYTE      P4
      000000B0H   SFRSYM    DATA     BYTE      P3
      000000A0H   SFRSYM    DATA     BYTE      P2
      00000090H   SFRSYM    DATA     BYTE      P1
      00000080H   SFRSYM    DATA     BYTE      P0
      000018D3H   SYMBOL    EDATA    INT       int_n
      000018D5H   SYMBOL    EDATA    INT       mode

      ---         MODULE    ---      ---       zf_gpio
      00FF374DH   PUBLIC    CODE     ---       gpio_mode
      00000094H   SFRSYM    DATA     BYTE      P0M0
      000000D0H   SFRSYM    DATA     BYTE      PSW
      0000009DH   SFRSYM    DATA     BYTE      IRCBAND
      00000097H   SFRSYM    DATA     BYTE      AUXR2
      000000EFH   SFRSYM    DATA     BYTE      AUXINTIF
      000000FDH   SFRSYM    DATA     BYTE      S4CON
      000000ACH   SFRSYM    DATA     BYTE      S3CON
      0000009AH   SFRSYM    DATA     BYTE      S2CON
      000000B7H   SFRSYM    DATA     BYTE      IPH
      000000CDH   SFRSYM    DATA     BYTE      SPSTAT
      000000DDH   SFRSYM    DATA     BYTE      T4T3M
      000000C1H   SFRSYM    DATA     BYTE      WDT_CONTR
      000000DFH   SFRSYM    DATA     BYTE      IP3
      000000F4H   SFRSYM    DATA     BYTE      USBCON
      000000B5H   SFRSYM    DATA     BYTE      IP2
      000000FFH   SFRSYM    DATA     BYTE      RSTCFG
      000000C7H   SFRSYM    DATA     BYTE      IAP_CONTR
      000000F9H   SFRSYM    DATA     BYTE      LINICR
      0000008EH   SFRSYM    DATA     BYTE      AUXR
      000000AFH   SFRSYM    DATA     BYTE      IE2
      00000088H   SFRSYM    DATA     BYTE      TCON
      00000089H   SFRSYM    DATA     BYTE      TMOD
      00000098H   SFRSYM    DATA     BYTE      SCON
      000000F1H   SFRSYM    DATA     BYTE      CANICR
      00000087H   SFRSYM    DATA     BYTE      PCON
      000000BCH   SFRSYM    DATA     BYTE      ADC_CONTR
      000000E7H   SFRSYM    DATA     BYTE      CMPCR2
      000000E6H   SFRSYM    DATA     BYTE      CMPCR1
      000000DEH   SFRSYM    DATA     BYTE      ADCCFG
L251 LINKER/LOCATER V4.66.93.0                                                        12/27/2024  03:02:31  PAGE 48


      000000B8H   SFRSYM    DATA     BYTE      IP
      0000008FH   SFRSYM    DATA     BYTE      INTCLKO
      000000EEH   SFRSYM    DATA     BYTE      IP3H
      000000B6H   SFRSYM    DATA     BYTE      IP2H
      000000A8H   SFRSYM    DATA     BYTE      IE
      000000BBH   SFRSYM    DATA     BYTE      P_SW3
      000000BAH   SFRSYM    DATA     BYTE      P_SW2
      000000A2H   SFRSYM    DATA     BYTE      P_SW1
      000000CEH   SFRSYM    DATA     BYTE      SPCTL
      000000F8H   SFRSYM    DATA     BYTE      P7
      000000E1H   SFRSYM    DATA     BYTE      P7M1
      000000E8H   SFRSYM    DATA     BYTE      P6
      000000C8H   SFRSYM    DATA     BYTE      P5
      000000CBH   SFRSYM    DATA     BYTE      P6M1
      000000E2H   SFRSYM    DATA     BYTE      P7M0
      000000C0H   SFRSYM    DATA     BYTE      P4
      000000C9H   SFRSYM    DATA     BYTE      P5M1
      000000CCH   SFRSYM    DATA     BYTE      P6M0
      000000B0H   SFRSYM    DATA     BYTE      P3
      000000B3H   SFRSYM    DATA     BYTE      P4M1
      000000CAH   SFRSYM    DATA     BYTE      P5M0
      000000A0H   SFRSYM    DATA     BYTE      P2
      000000B1H   SFRSYM    DATA     BYTE      P3M1
      000000B4H   SFRSYM    DATA     BYTE      P4M0
      00000090H   SFRSYM    DATA     BYTE      P1
      00000095H   SFRSYM    DATA     BYTE      P2M1
      000000B2H   SFRSYM    DATA     BYTE      P3M0
      00000080H   SFRSYM    DATA     BYTE      P0
      00000091H   SFRSYM    DATA     BYTE      P1M1
      00000096H   SFRSYM    DATA     BYTE      P2M0
      00000092H   SFRSYM    DATA     BYTE      P1M0
      00000093H   SFRSYM    DATA     BYTE      P0M1
      000018D7H   SYMBOL    EDATA    INT       pin
      000018D9H   SYMBOL    EDATA    INT       pull

      00FF374DH   BLOCK     CODE     ---       LVL=0
      000018DBH   SYMBOL    EDATA    INT       pin
      000018DDH   SYMBOL    EDATA    INT       mode
      00FF374DH   LINE      CODE     ---       #54
      00FF3755H   LINE      CODE     ---       #56
      00FF3762H   LINE      CODE     ---       #58
      00FF3772H   LINE      CODE     ---       #60
      00FF378DH   LINE      CODE     ---       #61
      00FF37A8H   LINE      CODE     ---       #62
      00FF37A8H   LINE      CODE     ---       #63
      00FF37BAH   LINE      CODE     ---       #65
      00FF37D5H   LINE      CODE     ---       #66
      00FF37F0H   LINE      CODE     ---       #67
      00FF37F0H   LINE      CODE     ---       #68
      00FF3802H   LINE      CODE     ---       #70
      00FF381DH   LINE      CODE     ---       #71
      00FF3838H   LINE      CODE     ---       #72
      00FF3838H   LINE      CODE     ---       #74
      00FF384AH   LINE      CODE     ---       #76
      00FF3865H   LINE      CODE     ---       #77
      00FF3880H   LINE      CODE     ---       #78
      00FF3880H   LINE      CODE     ---       #79
      00FF3892H   LINE      CODE     ---       #81
      00FF38ADH   LINE      CODE     ---       #82
      00FF38C8H   LINE      CODE     ---       #83
      00FF38C8H   LINE      CODE     ---       #84
      00FF38DAH   LINE      CODE     ---       #86
      00FF38F5H   LINE      CODE     ---       #87
      00FF3910H   LINE      CODE     ---       #88
      00FF3910H   LINE      CODE     ---       #89
L251 LINKER/LOCATER V4.66.93.0                                                        12/27/2024  03:02:31  PAGE 49


      00FF3922H   LINE      CODE     ---       #91
      00FF393DH   LINE      CODE     ---       #92
      00FF3958H   LINE      CODE     ---       #93
      00FF3958H   LINE      CODE     ---       #94
      00FF396DH   LINE      CODE     ---       #96
      00FF3988H   LINE      CODE     ---       #97
      00FF39A3H   LINE      CODE     ---       #98
      00FF39A6H   LINE      CODE     ---       #100
      00FF39B5H   LINE      CODE     ---       #102
      00FF39C5H   LINE      CODE     ---       #104
      00FF39E0H   LINE      CODE     ---       #105
      00FF39F9H   LINE      CODE     ---       #106
      00FF39F9H   LINE      CODE     ---       #107
      00FF3A0BH   LINE      CODE     ---       #109
      00FF3A26H   LINE      CODE     ---       #110
      00FF3A3FH   LINE      CODE     ---       #111
      00FF3A3FH   LINE      CODE     ---       #112
      00FF3A51H   LINE      CODE     ---       #114
      00FF3A6CH   LINE      CODE     ---       #115
      00FF3A85H   LINE      CODE     ---       #116
      00FF3A85H   LINE      CODE     ---       #118
      00FF3A97H   LINE      CODE     ---       #120
      00FF3AB2H   LINE      CODE     ---       #121
      00FF3ACBH   LINE      CODE     ---       #122
      00FF3ACBH   LINE      CODE     ---       #123
      00FF3ADDH   LINE      CODE     ---       #125
      00FF3AF8H   LINE      CODE     ---       #126
      00FF3B11H   LINE      CODE     ---       #127
      00FF3B11H   LINE      CODE     ---       #128
      00FF3B23H   LINE      CODE     ---       #130
      00FF3B3EH   LINE      CODE     ---       #131
      00FF3B57H   LINE      CODE     ---       #132
      00FF3B57H   LINE      CODE     ---       #133
      00FF3B69H   LINE      CODE     ---       #135
      00FF3B84H   LINE      CODE     ---       #136
      00FF3B9DH   LINE      CODE     ---       #137
      00FF3B9DH   LINE      CODE     ---       #138
      00FF3BB2H   LINE      CODE     ---       #140
      00FF3BCDH   LINE      CODE     ---       #141
      00FF3BE6H   LINE      CODE     ---       #142
      00FF3BE9H   LINE      CODE     ---       #145
      00FF3BF8H   LINE      CODE     ---       #147
      00FF3C08H   LINE      CODE     ---       #149
      00FF3C21H   LINE      CODE     ---       #150
      00FF3C3CH   LINE      CODE     ---       #151
      00FF3C3CH   LINE      CODE     ---       #152
      00FF3C4EH   LINE      CODE     ---       #154
      00FF3C67H   LINE      CODE     ---       #155
      00FF3C82H   LINE      CODE     ---       #156
      00FF3C82H   LINE      CODE     ---       #157
      00FF3C94H   LINE      CODE     ---       #159
      00FF3CADH   LINE      CODE     ---       #160
      00FF3CC8H   LINE      CODE     ---       #161
      00FF3CC8H   LINE      CODE     ---       #163
      00FF3CDAH   LINE      CODE     ---       #165
      00FF3CF3H   LINE      CODE     ---       #166
      00FF3D0EH   LINE      CODE     ---       #167
      00FF3D0EH   LINE      CODE     ---       #168
      00FF3D20H   LINE      CODE     ---       #170
      00FF3D39H   LINE      CODE     ---       #171
      00FF3D54H   LINE      CODE     ---       #172
      00FF3D54H   LINE      CODE     ---       #173
      00FF3D66H   LINE      CODE     ---       #175
      00FF3D7FH   LINE      CODE     ---       #176
      00FF3D9AH   LINE      CODE     ---       #177
L251 LINKER/LOCATER V4.66.93.0                                                        12/27/2024  03:02:31  PAGE 50


      00FF3D9AH   LINE      CODE     ---       #178
      00FF3DACH   LINE      CODE     ---       #180
      00FF3DC5H   LINE      CODE     ---       #181
      00FF3DE0H   LINE      CODE     ---       #182
      00FF3DE0H   LINE      CODE     ---       #183
      00FF3DF5H   LINE      CODE     ---       #185
      00FF3E0EH   LINE      CODE     ---       #186
      00FF3E29H   LINE      CODE     ---       #187
      00FF3E2CH   LINE      CODE     ---       #189
      00FF3E3BH   LINE      CODE     ---       #191
      00FF3E4BH   LINE      CODE     ---       #193
      00FF3E64H   LINE      CODE     ---       #194
      00FF3E7DH   LINE      CODE     ---       #195
      00FF3E7DH   LINE      CODE     ---       #196
      00FF3E8FH   LINE      CODE     ---       #198
      00FF3EA8H   LINE      CODE     ---       #199
      00FF3EC1H   LINE      CODE     ---       #200
      00FF3EC1H   LINE      CODE     ---       #201
      00FF3ED3H   LINE      CODE     ---       #203
      00FF3EECH   LINE      CODE     ---       #204
      00FF3F05H   LINE      CODE     ---       #205
      00FF3F05H   LINE      CODE     ---       #207
      00FF3F17H   LINE      CODE     ---       #209
      00FF3F30H   LINE      CODE     ---       #210
      00FF3F49H   LINE      CODE     ---       #211
      00FF3F49H   LINE      CODE     ---       #212
      00FF3F5BH   LINE      CODE     ---       #214
      00FF3F74H   LINE      CODE     ---       #215
      00FF3F8DH   LINE      CODE     ---       #216
      00FF3F8DH   LINE      CODE     ---       #217
      00FF3F9FH   LINE      CODE     ---       #219
      00FF3FB8H   LINE      CODE     ---       #220
      00FF3FD1H   LINE      CODE     ---       #221
      00FF3FD1H   LINE      CODE     ---       #222
      00FF3FE3H   LINE      CODE     ---       #224
      00FF3FFCH   LINE      CODE     ---       #225
      00FF4015H   LINE      CODE     ---       #226
      00FF4015H   LINE      CODE     ---       #227
      00FF4027H   LINE      CODE     ---       #229
      00FF4040H   LINE      CODE     ---       #230
      00FF4059H   LINE      CODE     ---       #231
      00FF4059H   LINE      CODE     ---       #233
      ---         BLOCKEND  ---      ---       LVL=0

      ---         MODULE    ---      ---       zf_iic
      000017E3H   PUBLIC    EDATA    BYTE      ?iic_init?BYTE
      000000D0H   SFRSYM    DATA     BYTE      PSW
      0000009DH   SFRSYM    DATA     BYTE      IRCBAND
      00000097H   SFRSYM    DATA     BYTE      AUXR2
      000000EFH   SFRSYM    DATA     BYTE      AUXINTIF
      000000FDH   SFRSYM    DATA     BYTE      S4CON
      000000ACH   SFRSYM    DATA     BYTE      S3CON
      0000009AH   SFRSYM    DATA     BYTE      S2CON
      000000B7H   SFRSYM    DATA     BYTE      IPH
      000000CDH   SFRSYM    DATA     BYTE      SPSTAT
      000000DDH   SFRSYM    DATA     BYTE      T4T3M
      000000C1H   SFRSYM    DATA     BYTE      WDT_CONTR
      000000DFH   SFRSYM    DATA     BYTE      IP3
      000000F4H   SFRSYM    DATA     BYTE      USBCON
      000000B5H   SFRSYM    DATA     BYTE      IP2
      000000FFH   SFRSYM    DATA     BYTE      RSTCFG
      000000C7H   SFRSYM    DATA     BYTE      IAP_CONTR
      000000F9H   SFRSYM    DATA     BYTE      LINICR
      0000008EH   SFRSYM    DATA     BYTE      AUXR
      000000AFH   SFRSYM    DATA     BYTE      IE2
L251 LINKER/LOCATER V4.66.93.0                                                        12/27/2024  03:02:31  PAGE 51


      00000088H   SFRSYM    DATA     BYTE      TCON
      00000089H   SFRSYM    DATA     BYTE      TMOD
      00000098H   SFRSYM    DATA     BYTE      SCON
      000000F1H   SFRSYM    DATA     BYTE      CANICR
      00000087H   SFRSYM    DATA     BYTE      PCON
      000000BCH   SFRSYM    DATA     BYTE      ADC_CONTR
      000000E7H   SFRSYM    DATA     BYTE      CMPCR2
      000000E6H   SFRSYM    DATA     BYTE      CMPCR1
      000000DEH   SFRSYM    DATA     BYTE      ADCCFG
      000000B8H   SFRSYM    DATA     BYTE      IP
      0000008FH   SFRSYM    DATA     BYTE      INTCLKO
      000000EEH   SFRSYM    DATA     BYTE      IP3H
      000000B6H   SFRSYM    DATA     BYTE      IP2H
      000000A8H   SFRSYM    DATA     BYTE      IE
      000000BBH   SFRSYM    DATA     BYTE      P_SW3
      000000BAH   SFRSYM    DATA     BYTE      P_SW2
      000000A2H   SFRSYM    DATA     BYTE      P_SW1
      000000CEH   SFRSYM    DATA     BYTE      SPCTL
      000000F8H   SFRSYM    DATA     BYTE      P7
      000000E8H   SFRSYM    DATA     BYTE      P6
      000000C8H   SFRSYM    DATA     BYTE      P5
      000000C0H   SFRSYM    DATA     BYTE      P4
      000000B0H   SFRSYM    DATA     BYTE      P3
      000000A0H   SFRSYM    DATA     BYTE      P2
      00000090H   SFRSYM    DATA     BYTE      P1
      00000080H   SFRSYM    DATA     BYTE      P0
      00001937H   SYMBOL    EDATA    WORD      x
      00001939H   SYMBOL    EDATA    BYTE      i
      0000193AH   SYMBOL    EDATA    WORD      count
      0000193CH   SYMBOL    EDATA    BYTE      ret
      000019F1H   SYMBOL    EDATA    BYTE      ret
      00001987H   SYMBOL    EDATA    CHAR      dat
      00001988H   SYMBOL    EDATA    BYTE      ret
      000019F2H   SYMBOL    EDATA    BYTE      ret
      000019F3H   SYMBOL    EDATA    BYTE      ret
      000019F4H   SYMBOL    EDATA    BYTE      ret
      000017E7H   SYMBOL    EDATA    INT       iic_n
      000017E9H   SYMBOL    EDATA    DWORD     wait_time
      0000193DH   SYMBOL    EDATA    BYTE      dev_add
      0000193EH   SYMBOL    EDATA    BYTE      reg
      0000193FH   SYMBOL    EDATA    BYTE      dat
      000017EDH   SYMBOL    EDATA    BYTE      dev_add
      000017EEH   SYMBOL    EDATA    BYTE      reg
      000017EFH   SYMBOL    EDATA    ---       dat
      000017A3H   SYMBOL    EDATA    BYTE      dev_add
      000017A4H   SYMBOL    EDATA    BYTE      reg
      000017A5H   SYMBOL    EDATA    ---       dat
      000017A9H   SYMBOL    EDATA    BYTE      num
      00001989H   SYMBOL    EDATA    INT       iic_n

      ---         MODULE    ---      ---       zf_nvic
      000000D0H   SFRSYM    DATA     BYTE      PSW
      0000009DH   SFRSYM    DATA     BYTE      IRCBAND
      00000097H   SFRSYM    DATA     BYTE      AUXR2
      000000EFH   SFRSYM    DATA     BYTE      AUXINTIF
      000000FDH   SFRSYM    DATA     BYTE      S4CON
      000000ACH   SFRSYM    DATA     BYTE      S3CON
      0000009AH   SFRSYM    DATA     BYTE      S2CON
      000000B7H   SFRSYM    DATA     BYTE      IPH
      000000CDH   SFRSYM    DATA     BYTE      SPSTAT
      000000DDH   SFRSYM    DATA     BYTE      T4T3M
      000000C1H   SFRSYM    DATA     BYTE      WDT_CONTR
      000000DFH   SFRSYM    DATA     BYTE      IP3
      000000F4H   SFRSYM    DATA     BYTE      USBCON
      000000B5H   SFRSYM    DATA     BYTE      IP2
L251 LINKER/LOCATER V4.66.93.0                                                        12/27/2024  03:02:31  PAGE 52


      000000FFH   SFRSYM    DATA     BYTE      RSTCFG
      000000C7H   SFRSYM    DATA     BYTE      IAP_CONTR
      000000F9H   SFRSYM    DATA     BYTE      LINICR
      0000008EH   SFRSYM    DATA     BYTE      AUXR
      000000AFH   SFRSYM    DATA     BYTE      IE2
      00000088H   SFRSYM    DATA     BYTE      TCON
      00000089H   SFRSYM    DATA     BYTE      TMOD
      00000098H   SFRSYM    DATA     BYTE      SCON
      000000F1H   SFRSYM    DATA     BYTE      CANICR
      00000087H   SFRSYM    DATA     BYTE      PCON
      000000BCH   SFRSYM    DATA     BYTE      ADC_CONTR
      000000E7H   SFRSYM    DATA     BYTE      CMPCR2
      000000E6H   SFRSYM    DATA     BYTE      CMPCR1
      000000DEH   SFRSYM    DATA     BYTE      ADCCFG
      000000B8H   SFRSYM    DATA     BYTE      IP
      0000008FH   SFRSYM    DATA     BYTE      INTCLKO
      000000EEH   SFRSYM    DATA     BYTE      IP3H
      000000B6H   SFRSYM    DATA     BYTE      IP2H
      000000A8H   SFRSYM    DATA     BYTE      IE
      000000BBH   SFRSYM    DATA     BYTE      P_SW3
      000000BAH   SFRSYM    DATA     BYTE      P_SW2
      000000A2H   SFRSYM    DATA     BYTE      P_SW1
      000000CEH   SFRSYM    DATA     BYTE      SPCTL
      000000F8H   SFRSYM    DATA     BYTE      P7
      000000E8H   SFRSYM    DATA     BYTE      P6
      000000C8H   SFRSYM    DATA     BYTE      P5
      000000C0H   SFRSYM    DATA     BYTE      P4
      000000B0H   SFRSYM    DATA     BYTE      P3
      000000A0H   SFRSYM    DATA     BYTE      P2
      00000090H   SFRSYM    DATA     BYTE      P1
      00000080H   SFRSYM    DATA     BYTE      P0
      00001940H   SYMBOL    EDATA    INT       irqn
      00001942H   SYMBOL    EDATA    BYTE      priority

      ---         MODULE    ---      ---       zf_pwm
      00FF8AB0H   PUBLIC    CODE     ---       pwm_duty
      00FF73B5H   PUBLIC    CODE     ---       pwm_set_gpio
      00FF6500H   PUBLIC    CODE     ---       pwm_init
      00FFB211H   PUBLIC    HCONST   ---       PWM_CCR_ADDR
      00FFB231H   PUBLIC    HCONST   ---       PWM_ARR_ADDR
      00FFB239H   PUBLIC    HCONST   ---       PWM_CCER_ADDR
      00FFB249H   PUBLIC    HCONST   ---       PWM_CCMR_ADDR
      000012B6H   PUBLIC    EDATA    BYTE      ?pwm_init?BYTE
      000012CAH   PUBLIC    EDATA    BYTE      ?pwm_freq?BYTE
      000000D0H   SFRSYM    DATA     BYTE      PSW
      0000009DH   SFRSYM    DATA     BYTE      IRCBAND
      00000097H   SFRSYM    DATA     BYTE      AUXR2
      000000EFH   SFRSYM    DATA     BYTE      AUXINTIF
      000000FDH   SFRSYM    DATA     BYTE      S4CON
      000000ACH   SFRSYM    DATA     BYTE      S3CON
      0000009AH   SFRSYM    DATA     BYTE      S2CON
      000000B7H   SFRSYM    DATA     BYTE      IPH
      000000CDH   SFRSYM    DATA     BYTE      SPSTAT
      000000DDH   SFRSYM    DATA     BYTE      T4T3M
      000000C1H   SFRSYM    DATA     BYTE      WDT_CONTR
      000000DFH   SFRSYM    DATA     BYTE      IP3
      000000F4H   SFRSYM    DATA     BYTE      USBCON
      000000B5H   SFRSYM    DATA     BYTE      IP2
      000000FFH   SFRSYM    DATA     BYTE      RSTCFG
      000000C7H   SFRSYM    DATA     BYTE      IAP_CONTR
      000000F9H   SFRSYM    DATA     BYTE      LINICR
      0000008EH   SFRSYM    DATA     BYTE      AUXR
      000000AFH   SFRSYM    DATA     BYTE      IE2
      00000088H   SFRSYM    DATA     BYTE      TCON
      00000089H   SFRSYM    DATA     BYTE      TMOD
L251 LINKER/LOCATER V4.66.93.0                                                        12/27/2024  03:02:31  PAGE 53


      00000098H   SFRSYM    DATA     BYTE      SCON
      000000F1H   SFRSYM    DATA     BYTE      CANICR
      00000087H   SFRSYM    DATA     BYTE      PCON
      000000BCH   SFRSYM    DATA     BYTE      ADC_CONTR
      000000E7H   SFRSYM    DATA     BYTE      CMPCR2
      000000E6H   SFRSYM    DATA     BYTE      CMPCR1
      000000DEH   SFRSYM    DATA     BYTE      ADCCFG
      000000B8H   SFRSYM    DATA     BYTE      IP
      0000008FH   SFRSYM    DATA     BYTE      INTCLKO
      000000EEH   SFRSYM    DATA     BYTE      IP3H
      000000B6H   SFRSYM    DATA     BYTE      IP2H
      000000A8H   SFRSYM    DATA     BYTE      IE
      000000BBH   SFRSYM    DATA     BYTE      P_SW3
      000000BAH   SFRSYM    DATA     BYTE      P_SW2
      000000A2H   SFRSYM    DATA     BYTE      P_SW1
      000000CEH   SFRSYM    DATA     BYTE      SPCTL
      000000F8H   SFRSYM    DATA     BYTE      P7
      000000E8H   SFRSYM    DATA     BYTE      P6
      000000C8H   SFRSYM    DATA     BYTE      P5
      000000C0H   SFRSYM    DATA     BYTE      P4
      000000B0H   SFRSYM    DATA     BYTE      P3
      000000A0H   SFRSYM    DATA     BYTE      P2
      00000090H   SFRSYM    DATA     BYTE      P1
      00000080H   SFRSYM    DATA     BYTE      P0

      00FF73B5H   BLOCK     CODE     ---       LVL=0
      0000198BH   SYMBOL    EDATA    INT       pwmch
      00FF73B5H   LINE      CODE     ---       #49
      00FF73B9H   LINE      CODE     ---       #51
      00FF752BH   LINE      CODE     ---       #53
      00FF752BH   LINE      CODE     ---       #55
      00FF7536H   LINE      CODE     ---       #56
      00FF7539H   LINE      CODE     ---       #58
      00FF7539H   LINE      CODE     ---       #60
      00FF7544H   LINE      CODE     ---       #61
      00FF7547H   LINE      CODE     ---       #63
      00FF7547H   LINE      CODE     ---       #65
      00FF7552H   LINE      CODE     ---       #66
      00FF7555H   LINE      CODE     ---       #68
      00FF7555H   LINE      CODE     ---       #70
      00FF7560H   LINE      CODE     ---       #71
      00FF7563H   LINE      CODE     ---       #84
      00FF7563H   LINE      CODE     ---       #86
      00FF756EH   LINE      CODE     ---       #87
      00FF7571H   LINE      CODE     ---       #89
      00FF7571H   LINE      CODE     ---       #91
      00FF757CH   LINE      CODE     ---       #92
      00FF757FH   LINE      CODE     ---       #94
      00FF757FH   LINE      CODE     ---       #96
      00FF758AH   LINE      CODE     ---       #97
      00FF758DH   LINE      CODE     ---       #99
      00FF758DH   LINE      CODE     ---       #101
      00FF7598H   LINE      CODE     ---       #102
      00FF759BH   LINE      CODE     ---       #115
      00FF759BH   LINE      CODE     ---       #117
      00FF75A6H   LINE      CODE     ---       #118
      00FF75A9H   LINE      CODE     ---       #120
      00FF75A9H   LINE      CODE     ---       #122
      00FF75B4H   LINE      CODE     ---       #123
      00FF75B7H   LINE      CODE     ---       #125
      00FF75B7H   LINE      CODE     ---       #127
      00FF75C2H   LINE      CODE     ---       #128
      00FF75C5H   LINE      CODE     ---       #130
      00FF75C5H   LINE      CODE     ---       #132
      00FF75D0H   LINE      CODE     ---       #133
L251 LINKER/LOCATER V4.66.93.0                                                        12/27/2024  03:02:31  PAGE 54


      00FF75D3H   LINE      CODE     ---       #147
      00FF75D3H   LINE      CODE     ---       #149
      00FF75DEH   LINE      CODE     ---       #150
      00FF75E1H   LINE      CODE     ---       #152
      00FF75E1H   LINE      CODE     ---       #154
      00FF75ECH   LINE      CODE     ---       #155
      00FF75EFH   LINE      CODE     ---       #157
      00FF75EFH   LINE      CODE     ---       #159
      00FF75FAH   LINE      CODE     ---       #160
      00FF75FDH   LINE      CODE     ---       #162
      00FF75FDH   LINE      CODE     ---       #164
      00FF7608H   LINE      CODE     ---       #165
      00FF760BH   LINE      CODE     ---       #177
      00FF760BH   LINE      CODE     ---       #179
      00FF7616H   LINE      CODE     ---       #180
      00FF7619H   LINE      CODE     ---       #182
      00FF7619H   LINE      CODE     ---       #184
      00FF7624H   LINE      CODE     ---       #185
      00FF7627H   LINE      CODE     ---       #189
      00FF7627H   LINE      CODE     ---       #191
      00FF7632H   LINE      CODE     ---       #192
      00FF7635H   LINE      CODE     ---       #194
      00FF7635H   LINE      CODE     ---       #196
      00FF7640H   LINE      CODE     ---       #197
      00FF7642H   LINE      CODE     ---       #199
      00FF7642H   LINE      CODE     ---       #201
      00FF764BH   LINE      CODE     ---       #202
      00FF764DH   LINE      CODE     ---       #210
      00FF764DH   LINE      CODE     ---       #212
      00FF7658H   LINE      CODE     ---       #213
      00FF765AH   LINE      CODE     ---       #215
      00FF765AH   LINE      CODE     ---       #217
      00FF7665H   LINE      CODE     ---       #218
      00FF7667H   LINE      CODE     ---       #220
      00FF7667H   LINE      CODE     ---       #222
      00FF7672H   LINE      CODE     ---       #223
      00FF7674H   LINE      CODE     ---       #232
      00FF7674H   LINE      CODE     ---       #234
      00FF767FH   LINE      CODE     ---       #235
      00FF7681H   LINE      CODE     ---       #237
      00FF7681H   LINE      CODE     ---       #239
      00FF768CH   LINE      CODE     ---       #240
      00FF768EH   LINE      CODE     ---       #242
      00FF768EH   LINE      CODE     ---       #244
      00FF7699H   LINE      CODE     ---       #245
      00FF769BH   LINE      CODE     ---       #254
      00FF769BH   LINE      CODE     ---       #256
      00FF76A6H   LINE      CODE     ---       #257
      00FF76A8H   LINE      CODE     ---       #259
      00FF76A8H   LINE      CODE     ---       #261
      00FF76B3H   LINE      CODE     ---       #262
      00FF76B5H   LINE      CODE     ---       #264
      00FF76B5H   LINE      CODE     ---       #266
      00FF76C0H   LINE      CODE     ---       #267
      00FF76C0H   LINE      CODE     ---       #275
      00FF76C0H   LINE      CODE     ---       #277
      ---         BLOCKEND  ---      ---       LVL=0

      00FF6500H   BLOCK     CODE     ---       LVL=0
      000012B6H   SYMBOL    EDATA    INT       pwmch
      000012B8H   SYMBOL    EDATA    DWORD     freq
      000012BCH   SYMBOL    EDATA    DWORD     duty
      00FF6508H   BLOCK     CODE     NEAR LAB  LVL=1
      000012C0H   SYMBOL    EDATA    DWORD     match_temp
      000012C4H   SYMBOL    EDATA    DWORD     period_temp
L251 LINKER/LOCATER V4.66.93.0                                                        12/27/2024  03:02:31  PAGE 55


      000012C8H   SYMBOL    EDATA    WORD      freq_div
      ---         BLOCKEND  ---      ---       LVL=1
      00FF6500H   LINE      CODE     ---       #290
      00FF6508H   LINE      CODE     ---       #291
      00FF6508H   LINE      CODE     ---       #295
      00FF650EH   LINE      CODE     ---       #298
      00FF6511H   LINE      CODE     ---       #301
      00FF6518H   LINE      CODE     ---       #305
      00FF652BH   LINE      CODE     ---       #306
      00FF653AH   LINE      CODE     ---       #307
      00FF6555H   LINE      CODE     ---       #309
      00FF655FH   LINE      CODE     ---       #311
      00FF6586H   LINE      CODE     ---       #312
      00FF6588H   LINE      CODE     ---       #315
      00FF6596H   LINE      CODE     ---       #316
      00FF6596H   LINE      CODE     ---       #319
      00FF65A5H   LINE      CODE     ---       #322
      00FF65D6H   LINE      CODE     ---       #323
      00FF660DH   LINE      CODE     ---       #326
      00FF665FH   LINE      CODE     ---       #329
      00FF6672H   LINE      CODE     ---       #330
      00FF6681H   LINE      CODE     ---       #332
      00FF668EH   LINE      CODE     ---       #333
      00FF669BH   LINE      CODE     ---       #334
      00FF669EH   LINE      CODE     ---       #337
      00FF66DCH   LINE      CODE     ---       #338
      00FF670FH   LINE      CODE     ---       #341
      00FF676FH   LINE      CODE     ---       #345
      00FF6782H   LINE      CODE     ---       #346
      00FF6791H   LINE      CODE     ---       #348
      00FF679EH   LINE      CODE     ---       #349
      00FF67ABH   LINE      CODE     ---       #350
      00FF67ABH   LINE      CODE     ---       #353
      00FF67DDH   LINE      CODE     ---       #354
      00FF6815H   LINE      CODE     ---       #357
      00FF6843H   LINE      CODE     ---       #358
      00FF6877H   LINE      CODE     ---       #361
      00FF68A8H   LINE      CODE     ---       #362
      00FF68D9H   LINE      CODE     ---       #367
      ---         BLOCKEND  ---      ---       LVL=0

      00FF8AB0H   BLOCK     CODE     ---       LVL=0
      0000139AH   SYMBOL    EDATA    INT       pwmch
      0000139CH   SYMBOL    EDATA    DWORD     duty
      00FF8AB8H   BLOCK     CODE     NEAR LAB  LVL=1
      000013A0H   SYMBOL    EDATA    DWORD     match_temp
      000013A4H   SYMBOL    EDATA    DWORD     arr
      ---         BLOCKEND  ---      ---       LVL=1
      00FF8AB0H   LINE      CODE     ---       #377
      00FF8AB8H   LINE      CODE     ---       #378
      00FF8AB8H   LINE      CODE     ---       #380
      00FF8B24H   LINE      CODE     ---       #384
      00FF8B2EH   LINE      CODE     ---       #386
      00FF8B55H   LINE      CODE     ---       #387
      00FF8B57H   LINE      CODE     ---       #390
      00FF8B65H   LINE      CODE     ---       #391
      00FF8B65H   LINE      CODE     ---       #396
      00FF8B93H   LINE      CODE     ---       #397
      00FF8BC7H   LINE      CODE     ---       #401
      ---         BLOCKEND  ---      ---       LVL=0
      000012CAH   SYMBOL    EDATA    INT       pwmch
      000012CCH   SYMBOL    EDATA    DWORD     freq
      000012D0H   SYMBOL    EDATA    DWORD     duty
      000012D4H   SYMBOL    EDATA    DWORD     match_temp
      000012D8H   SYMBOL    EDATA    DWORD     period_temp
L251 LINKER/LOCATER V4.66.93.0                                                        12/27/2024  03:02:31  PAGE 56


      000012DCH   SYMBOL    EDATA    WORD      freq_div

      ---         MODULE    ---      ---       zf_spi
      00FF8FD6H   PUBLIC    CODE     ---       spi_init
      00FFA641H   PUBLIC    CODE     ---       spi_mosi
      000013FCH   PUBLIC    EDATA    BYTE      ?spi_init?BYTE
      000000CFH   SFRSYM    DATA     BYTE      SPDAT
      000000D0H   SFRSYM    DATA     BYTE      PSW
      0000009DH   SFRSYM    DATA     BYTE      IRCBAND
      00000097H   SFRSYM    DATA     BYTE      AUXR2
      000000EFH   SFRSYM    DATA     BYTE      AUXINTIF
      000000FDH   SFRSYM    DATA     BYTE      S4CON
      000000ACH   SFRSYM    DATA     BYTE      S3CON
      0000009AH   SFRSYM    DATA     BYTE      S2CON
      000000B7H   SFRSYM    DATA     BYTE      IPH
      000000CDH   SFRSYM    DATA     BYTE      SPSTAT
      000000DDH   SFRSYM    DATA     BYTE      T4T3M
      000000C1H   SFRSYM    DATA     BYTE      WDT_CONTR
      000000DFH   SFRSYM    DATA     BYTE      IP3
      000000F4H   SFRSYM    DATA     BYTE      USBCON
      000000B5H   SFRSYM    DATA     BYTE      IP2
      000000FFH   SFRSYM    DATA     BYTE      RSTCFG
      000000C7H   SFRSYM    DATA     BYTE      IAP_CONTR
      000000F9H   SFRSYM    DATA     BYTE      LINICR
      0000008EH   SFRSYM    DATA     BYTE      AUXR
      000000AFH   SFRSYM    DATA     BYTE      IE2
      00000088H   SFRSYM    DATA     BYTE      TCON
      00000089H   SFRSYM    DATA     BYTE      TMOD
      00000098H   SFRSYM    DATA     BYTE      SCON
      000000F1H   SFRSYM    DATA     BYTE      CANICR
      00000087H   SFRSYM    DATA     BYTE      PCON
      000000BCH   SFRSYM    DATA     BYTE      ADC_CONTR
      000000E7H   SFRSYM    DATA     BYTE      CMPCR2
      000000E6H   SFRSYM    DATA     BYTE      CMPCR1
      000000DEH   SFRSYM    DATA     BYTE      ADCCFG
      000000B8H   SFRSYM    DATA     BYTE      IP
      0000008FH   SFRSYM    DATA     BYTE      INTCLKO
      000000EEH   SFRSYM    DATA     BYTE      IP3H
      000000B6H   SFRSYM    DATA     BYTE      IP2H
      000000A8H   SFRSYM    DATA     BYTE      IE
      000000BBH   SFRSYM    DATA     BYTE      P_SW3
      000000BAH   SFRSYM    DATA     BYTE      P_SW2
      000000A2H   SFRSYM    DATA     BYTE      P_SW1
      000000CEH   SFRSYM    DATA     BYTE      SPCTL
      000000F8H   SFRSYM    DATA     BYTE      P7
      000000E8H   SFRSYM    DATA     BYTE      P6
      000000C8H   SFRSYM    DATA     BYTE      P5
      000000C0H   SFRSYM    DATA     BYTE      P4
      000000B0H   SFRSYM    DATA     BYTE      P3
      000000A0H   SFRSYM    DATA     BYTE      P2
      00000090H   SFRSYM    DATA     BYTE      P1
      00000080H   SFRSYM    DATA     BYTE      P0

      00FF8FD6H   BLOCK     CODE     ---       LVL=0
      000013FCH   SYMBOL    EDATA    INT       spi_n
      000013FEH   SYMBOL    EDATA    INT       sck_pin
      00001400H   SYMBOL    EDATA    INT       mosi_pin
      00001402H   SYMBOL    EDATA    INT       miso_pin
      00001404H   SYMBOL    EDATA    BYTE      mode
      00001405H   SYMBOL    EDATA    INT       mstr
      00001407H   SYMBOL    EDATA    INT       baud
      00FF8FD6H   LINE      CODE     ---       #39
      00FF8FEAH   LINE      CODE     ---       #48
      00FF8FF6H   LINE      CODE     ---       #50
      00FF9005H   LINE      CODE     ---       #51
L251 LINKER/LOCATER V4.66.93.0                                                        12/27/2024  03:02:31  PAGE 57


      00FF9005H   LINE      CODE     ---       #53
      00FF9011H   LINE      CODE     ---       #55
      00FF9020H   LINE      CODE     ---       #56
      00FF9020H   LINE      CODE     ---       #58
      00FF902CH   LINE      CODE     ---       #60
      00FF903BH   LINE      CODE     ---       #61
      00FF903BH   LINE      CODE     ---       #64
      00FF903EH   LINE      CODE     ---       #65
      00FF9054H   LINE      CODE     ---       #67
      00FF9054H   LINE      CODE     ---       #68
      00FF9058H   LINE      CODE     ---       #69
      00FF905AH   LINE      CODE     ---       #70
      00FF905AH   LINE      CODE     ---       #71
      00FF905DH   LINE      CODE     ---       #72
      00FF905FH   LINE      CODE     ---       #73
      00FF905FH   LINE      CODE     ---       #74
      00FF9062H   LINE      CODE     ---       #75
      00FF9064H   LINE      CODE     ---       #76
      00FF9064H   LINE      CODE     ---       #77
      00FF9067H   LINE      CODE     ---       #78
      00FF9067H   LINE      CODE     ---       #79
      00FF9067H   LINE      CODE     ---       #81
      00FF906AH   LINE      CODE     ---       #82
      00FF9079H   LINE      CODE     ---       #84
      00FF9079H   LINE      CODE     ---       #86
      00FF907BH   LINE      CODE     ---       #87
      00FF907BH   LINE      CODE     ---       #88
      00FF907EH   LINE      CODE     ---       #89
      00FF9080H   LINE      CODE     ---       #90
      00FF9080H   LINE      CODE     ---       #91
      00FF9083H   LINE      CODE     ---       #92
      00FF9085H   LINE      CODE     ---       #93
      00FF9085H   LINE      CODE     ---       #94
      00FF9088H   LINE      CODE     ---       #95
      00FF9088H   LINE      CODE     ---       #96
      00FF9088H   LINE      CODE     ---       #99
      00FF9090H   LINE      CODE     ---       #101
      00FF909AH   LINE      CODE     ---       #103
      00FF909DH   LINE      CODE     ---       #104
      00FF90A0H   LINE      CODE     ---       #105
      00FF90A0H   LINE      CODE     ---       #109
      00FF90A0H   LINE      CODE     ---       #110
      00FF90A3H   LINE      CODE     ---       #111
      ---         BLOCKEND  ---      ---       LVL=0

      00FFA641H   BLOCK     CODE     ---       LVL=0
      000019F5H   SYMBOL    EDATA    BYTE      dat
      00FFA641H   LINE      CODE     ---       #121
      00FFA645H   LINE      CODE     ---       #123
      00FFA647H   LINE      CODE     ---       #124
      00FFA64CH   LINE      CODE     ---       #125
      00FFA650H   LINE      CODE     ---       #126
      00FFA652H   LINE      CODE     ---       #127
      ---         BLOCKEND  ---      ---       LVL=0
      0000198DH   SYMBOL    EDATA    INT       spi_n
      000019F6H   SYMBOL    EDATA    BYTE      mode

      ---         MODULE    ---      ---       zf_tim
      00FF9470H   PUBLIC    CODE     ---       ctimer_count_read
      00FF8EF1H   PUBLIC    CODE     ---       pit_timer_ms
      00FFA0E0H   PUBLIC    CODE     ---       ctimer_count_init
      00FF9F20H   PUBLIC    CODE     ---       ctimer_count_clean
      000000D0H   SFRSYM    DATA     BYTE      PSW
      0000009DH   SFRSYM    DATA     BYTE      IRCBAND
      00000097H   SFRSYM    DATA     BYTE      AUXR2
L251 LINKER/LOCATER V4.66.93.0                                                        12/27/2024  03:02:31  PAGE 58


      000000EFH   SFRSYM    DATA     BYTE      AUXINTIF
      000000FDH   SFRSYM    DATA     BYTE      S4CON
      000000ACH   SFRSYM    DATA     BYTE      S3CON
      0000009AH   SFRSYM    DATA     BYTE      S2CON
      000000B7H   SFRSYM    DATA     BYTE      IPH
      000000CDH   SFRSYM    DATA     BYTE      SPSTAT
      000000DDH   SFRSYM    DATA     BYTE      T4T3M
      000000C1H   SFRSYM    DATA     BYTE      WDT_CONTR
      00000088H.6 SFRSYM    DATA     BIT       TR1
      00000088H.4 SFRSYM    DATA     BIT       TR0
      000000D3H   SFRSYM    DATA     BYTE      T4L
      000000D5H   SFRSYM    DATA     BYTE      T3L
      000000D7H   SFRSYM    DATA     BYTE      T2L
      0000008BH   SFRSYM    DATA     BYTE      TL1
      0000008AH   SFRSYM    DATA     BYTE      TL0
      000000D2H   SFRSYM    DATA     BYTE      T4H
      000000D4H   SFRSYM    DATA     BYTE      T3H
      000000D6H   SFRSYM    DATA     BYTE      T2H
      0000008DH   SFRSYM    DATA     BYTE      TH1
      0000008CH   SFRSYM    DATA     BYTE      TH0
      000000DFH   SFRSYM    DATA     BYTE      IP3
      000000F4H   SFRSYM    DATA     BYTE      USBCON
      000000B5H   SFRSYM    DATA     BYTE      IP2
      000000FFH   SFRSYM    DATA     BYTE      RSTCFG
      000000A8H.3 SFRSYM    DATA     BIT       ET1
      000000A8H.1 SFRSYM    DATA     BIT       ET0
      000000C7H   SFRSYM    DATA     BYTE      IAP_CONTR
      000000F9H   SFRSYM    DATA     BYTE      LINICR
      0000008EH   SFRSYM    DATA     BYTE      AUXR
      000000AFH   SFRSYM    DATA     BYTE      IE2
      00000088H   SFRSYM    DATA     BYTE      TCON
      00000089H   SFRSYM    DATA     BYTE      TMOD
      00000098H   SFRSYM    DATA     BYTE      SCON
      000000F1H   SFRSYM    DATA     BYTE      CANICR
      00000087H   SFRSYM    DATA     BYTE      PCON
      000000BCH   SFRSYM    DATA     BYTE      ADC_CONTR
      000000E7H   SFRSYM    DATA     BYTE      CMPCR2
      000000E6H   SFRSYM    DATA     BYTE      CMPCR1
      000000DEH   SFRSYM    DATA     BYTE      ADCCFG
      000000B8H   SFRSYM    DATA     BYTE      IP
      0000008FH   SFRSYM    DATA     BYTE      INTCLKO
      000000EEH   SFRSYM    DATA     BYTE      IP3H
      000000B6H   SFRSYM    DATA     BYTE      IP2H
      000000A8H   SFRSYM    DATA     BYTE      IE
      000000BBH   SFRSYM    DATA     BYTE      P_SW3
      000000BAH   SFRSYM    DATA     BYTE      P_SW2
      000000A2H   SFRSYM    DATA     BYTE      P_SW1
      000000CEH   SFRSYM    DATA     BYTE      SPCTL
      000000F8H   SFRSYM    DATA     BYTE      P7
      000000E8H   SFRSYM    DATA     BYTE      P6
      000000C8H   SFRSYM    DATA     BYTE      P5
      000000C0H   SFRSYM    DATA     BYTE      P4
      000000B0H   SFRSYM    DATA     BYTE      P3
      000000A0H   SFRSYM    DATA     BYTE      P2
      00000090H   SFRSYM    DATA     BYTE      P1
      00000080H   SFRSYM    DATA     BYTE      P0

      00FFA0E0H   BLOCK     CODE     ---       LVL=0
      0000198FH   SYMBOL    EDATA    INT       tim_n
      00FFA0E0H   LINE      CODE     ---       #39
      00FFA0E4H   LINE      CODE     ---       #42
      00FFA0F8H   LINE      CODE     ---       #44
      00FFA0F8H   LINE      CODE     ---       #46
      00FFA0FBH   LINE      CODE     ---       #47
      00FFA0FEH   LINE      CODE     ---       #48
L251 LINKER/LOCATER V4.66.93.0                                                        12/27/2024  03:02:31  PAGE 59


      00FFA101H   LINE      CODE     ---       #49
      00FFA104H   LINE      CODE     ---       #50
      00FFA106H   LINE      CODE     ---       #53
      00FFA106H   LINE      CODE     ---       #55
      00FFA109H   LINE      CODE     ---       #56
      00FFA10CH   LINE      CODE     ---       #57
      00FFA10FH   LINE      CODE     ---       #58
      00FFA112H   LINE      CODE     ---       #59
      00FFA114H   LINE      CODE     ---       #62
      00FFA114H   LINE      CODE     ---       #64
      00FFA117H   LINE      CODE     ---       #65
      00FFA11AH   LINE      CODE     ---       #66
      00FFA11DH   LINE      CODE     ---       #67
      00FFA11FH   LINE      CODE     ---       #70
      00FFA11FH   LINE      CODE     ---       #72
      00FFA122H   LINE      CODE     ---       #73
      00FFA125H   LINE      CODE     ---       #74
      00FFA128H   LINE      CODE     ---       #75
      00FFA12AH   LINE      CODE     ---       #78
      00FFA12AH   LINE      CODE     ---       #80
      00FFA12DH   LINE      CODE     ---       #81
      00FFA130H   LINE      CODE     ---       #82
      00FFA133H   LINE      CODE     ---       #83
      00FFA133H   LINE      CODE     ---       #86
      00FFA133H   LINE      CODE     ---       #87
      ---         BLOCKEND  ---      ---       LVL=0

      00FF9470H   BLOCK     CODE     ---       LVL=0
      000018DFH   SYMBOL    EDATA    INT       tim_n
      00FF9474H   BLOCK     CODE     NEAR LAB  LVL=1
      000018E1H   SYMBOL    EDATA    WORD      dat
      ---         BLOCKEND  ---      ---       LVL=1
      00FF9470H   LINE      CODE     ---       #95
      00FF9474H   LINE      CODE     ---       #96
      00FF9474H   LINE      CODE     ---       #97
      00FF947AH   LINE      CODE     ---       #99
      00FF9495H   LINE      CODE     ---       #101
      00FF9495H   LINE      CODE     ---       #103
      00FF94A1H   LINE      CODE     ---       #104
      00FF94AFH   LINE      CODE     ---       #105
      00FF94B1H   LINE      CODE     ---       #107
      00FF94B1H   LINE      CODE     ---       #109
      00FF94BDH   LINE      CODE     ---       #110
      00FF94CBH   LINE      CODE     ---       #111
      00FF94CDH   LINE      CODE     ---       #113
      00FF94CDH   LINE      CODE     ---       #115
      00FF94D9H   LINE      CODE     ---       #116
      00FF94E7H   LINE      CODE     ---       #117
      00FF94E9H   LINE      CODE     ---       #119
      00FF94E9H   LINE      CODE     ---       #121
      00FF94F5H   LINE      CODE     ---       #122
      00FF9503H   LINE      CODE     ---       #123
      00FF9505H   LINE      CODE     ---       #125
      00FF9505H   LINE      CODE     ---       #127
      00FF9511H   LINE      CODE     ---       #128
      00FF951FH   LINE      CODE     ---       #129
      00FF951FH   LINE      CODE     ---       #132
      00FF951FH   LINE      CODE     ---       #133
      00FF9523H   LINE      CODE     ---       #134
      ---         BLOCKEND  ---      ---       LVL=0

      00FF9F20H   BLOCK     CODE     ---       LVL=0
      00001991H   SYMBOL    EDATA    INT       tim_n
      00FF9F20H   LINE      CODE     ---       #143
      00FF9F24H   LINE      CODE     ---       #145
L251 LINKER/LOCATER V4.66.93.0                                                        12/27/2024  03:02:31  PAGE 60


      00FF9F38H   LINE      CODE     ---       #147
      00FF9F38H   LINE      CODE     ---       #149
      00FF9F3BH   LINE      CODE     ---       #150
      00FF9F3EH   LINE      CODE     ---       #151
      00FF9F41H   LINE      CODE     ---       #152
      00FF9F44H   LINE      CODE     ---       #153
      00FF9F46H   LINE      CODE     ---       #155
      00FF9F46H   LINE      CODE     ---       #157
      00FF9F49H   LINE      CODE     ---       #158
      00FF9F4CH   LINE      CODE     ---       #159
      00FF9F4FH   LINE      CODE     ---       #160
      00FF9F52H   LINE      CODE     ---       #161
      00FF9F54H   LINE      CODE     ---       #163
      00FF9F54H   LINE      CODE     ---       #165
      00FF9F57H   LINE      CODE     ---       #166
      00FF9F5AH   LINE      CODE     ---       #167
      00FF9F5DH   LINE      CODE     ---       #168
      00FF9F60H   LINE      CODE     ---       #169
      00FF9F62H   LINE      CODE     ---       #171
      00FF9F62H   LINE      CODE     ---       #173
      00FF9F65H   LINE      CODE     ---       #174
      00FF9F68H   LINE      CODE     ---       #175
      00FF9F6BH   LINE      CODE     ---       #176
      00FF9F6EH   LINE      CODE     ---       #177
      00FF9F70H   LINE      CODE     ---       #179
      00FF9F70H   LINE      CODE     ---       #181
      00FF9F73H   LINE      CODE     ---       #182
      00FF9F76H   LINE      CODE     ---       #183
      00FF9F79H   LINE      CODE     ---       #184
      00FF9F7CH   LINE      CODE     ---       #185
      00FF9F7CH   LINE      CODE     ---       #187
      00FF9F7CH   LINE      CODE     ---       #188
      ---         BLOCKEND  ---      ---       LVL=0

      00FF8EF1H   BLOCK     CODE     ---       LVL=0
      000017F3H   SYMBOL    EDATA    INT       tim_n
      000017F5H   SYMBOL    EDATA    WORD      time_ms
      00FF8EF9H   BLOCK     CODE     NEAR LAB  LVL=1
      000017F7H   SYMBOL    EDATA    WORD      temp
      ---         BLOCKEND  ---      ---       LVL=1
      00FF8EF1H   LINE      CODE     ---       #198
      00FF8EF9H   LINE      CODE     ---       #199
      00FF8EF9H   LINE      CODE     ---       #201
      00FF8F1CH   LINE      CODE     ---       #203
      00FF8F26H   LINE      CODE     ---       #205
      00FF8F2AH   LINE      CODE     ---       #206
      00FF8F30H   LINE      CODE     ---       #207
      00FF8F3AH   LINE      CODE     ---       #208
      00FF8F3DH   LINE      CODE     ---       #209
      00FF8F40H   LINE      CODE     ---       #210
      00FF8F43H   LINE      CODE     ---       #211
      00FF8F4FH   LINE      CODE     ---       #213
      00FF8F53H   LINE      CODE     ---       #214
      00FF8F59H   LINE      CODE     ---       #215
      00FF8F63H   LINE      CODE     ---       #216
      00FF8F66H   LINE      CODE     ---       #217
      00FF8F69H   LINE      CODE     ---       #218
      00FF8F6BH   LINE      CODE     ---       #219
      00FF8F77H   LINE      CODE     ---       #221
      00FF8F7DH   LINE      CODE     ---       #222
      00FF8F87H   LINE      CODE     ---       #223
      00FF8F8AH   LINE      CODE     ---       #224
      00FF8F8DH   LINE      CODE     ---       #225
      00FF8F8FH   LINE      CODE     ---       #226
      00FF8F9BH   LINE      CODE     ---       #228
L251 LINKER/LOCATER V4.66.93.0                                                        12/27/2024  03:02:31  PAGE 61


      00FF8FA1H   LINE      CODE     ---       #229
      00FF8FABH   LINE      CODE     ---       #230
      00FF8FAEH   LINE      CODE     ---       #231
      00FF8FB1H   LINE      CODE     ---       #232
      00FF8FB3H   LINE      CODE     ---       #233
      00FF8FBFH   LINE      CODE     ---       #235
      00FF8FC5H   LINE      CODE     ---       #236
      00FF8FCFH   LINE      CODE     ---       #237
      00FF8FD2H   LINE      CODE     ---       #238
      00FF8FD5H   LINE      CODE     ---       #239
      ---         BLOCKEND  ---      ---       LVL=0

      ---         MODULE    ---      ---       zf_uart
      00FF9CAEH   PUBLIC    CODE     ---       uart_putchar
      00FF76C1H   PUBLIC    CODE     ---       uart_init
      00001889H   PUBLIC    EDATA    ---       busy
      000013A8H   PUBLIC    EDATA    BYTE      ?uart_init?BYTE
      00001582H   PUBLIC    EDATA    BYTE      ?uart_putbuff?BYTE
      000000D0H   SFRSYM    DATA     BYTE      PSW
      0000009DH   SFRSYM    DATA     BYTE      IRCBAND
      00000097H   SFRSYM    DATA     BYTE      AUXR2
      000000EFH   SFRSYM    DATA     BYTE      AUXINTIF
      000000FDH   SFRSYM    DATA     BYTE      S4CON
      000000ACH   SFRSYM    DATA     BYTE      S3CON
      0000009AH   SFRSYM    DATA     BYTE      S2CON
      000000FEH   SFRSYM    DATA     BYTE      S4BUF
      000000ADH   SFRSYM    DATA     BYTE      S3BUF
      0000009BH   SFRSYM    DATA     BYTE      S2BUF
      000000B7H   SFRSYM    DATA     BYTE      IPH
      000000CDH   SFRSYM    DATA     BYTE      SPSTAT
      000000DDH   SFRSYM    DATA     BYTE      T4T3M
      000000C1H   SFRSYM    DATA     BYTE      WDT_CONTR
      00000088H.6 SFRSYM    DATA     BIT       TR1
      000000D3H   SFRSYM    DATA     BYTE      T4L
      000000D5H   SFRSYM    DATA     BYTE      T3L
      000000D7H   SFRSYM    DATA     BYTE      T2L
      0000008BH   SFRSYM    DATA     BYTE      TL1
      000000D2H   SFRSYM    DATA     BYTE      T4H
      000000D4H   SFRSYM    DATA     BYTE      T3H
      000000D6H   SFRSYM    DATA     BYTE      T2H
      0000008DH   SFRSYM    DATA     BYTE      TH1
      000000DFH   SFRSYM    DATA     BYTE      IP3
      000000F4H   SFRSYM    DATA     BYTE      USBCON
      000000B5H   SFRSYM    DATA     BYTE      IP2
      000000FFH   SFRSYM    DATA     BYTE      RSTCFG
      000000C7H   SFRSYM    DATA     BYTE      IAP_CONTR
      000000F9H   SFRSYM    DATA     BYTE      LINICR
      0000008EH   SFRSYM    DATA     BYTE      AUXR
      000000AFH   SFRSYM    DATA     BYTE      IE2
      00000088H   SFRSYM    DATA     BYTE      TCON
      00000089H   SFRSYM    DATA     BYTE      TMOD
      00000098H   SFRSYM    DATA     BYTE      SCON
      000000F1H   SFRSYM    DATA     BYTE      CANICR
      00000087H   SFRSYM    DATA     BYTE      PCON
      00000099H   SFRSYM    DATA     BYTE      SBUF
      000000BCH   SFRSYM    DATA     BYTE      ADC_CONTR
      000000E7H   SFRSYM    DATA     BYTE      CMPCR2
      000000E6H   SFRSYM    DATA     BYTE      CMPCR1
      000000DEH   SFRSYM    DATA     BYTE      ADCCFG
      000000B8H   SFRSYM    DATA     BYTE      IP
      000000A8H.4 SFRSYM    DATA     BIT       ES
      0000008FH   SFRSYM    DATA     BYTE      INTCLKO
      000000EEH   SFRSYM    DATA     BYTE      IP3H
      000000B6H   SFRSYM    DATA     BYTE      IP2H
      000000A8H   SFRSYM    DATA     BYTE      IE
L251 LINKER/LOCATER V4.66.93.0                                                        12/27/2024  03:02:31  PAGE 62


      000000BBH   SFRSYM    DATA     BYTE      P_SW3
      000000BAH   SFRSYM    DATA     BYTE      P_SW2
      000000A2H   SFRSYM    DATA     BYTE      P_SW1
      000000CEH   SFRSYM    DATA     BYTE      SPCTL
      000000F8H   SFRSYM    DATA     BYTE      P7
      000000E8H   SFRSYM    DATA     BYTE      P6
      000000C8H   SFRSYM    DATA     BYTE      P5
      000000C0H   SFRSYM    DATA     BYTE      P4
      000000C9H   SFRSYM    DATA     BYTE      P5M1
      000000B0H   SFRSYM    DATA     BYTE      P3
      000000CAH   SFRSYM    DATA     BYTE      P5M0
      000000A0H   SFRSYM    DATA     BYTE      P2
      00000090H   SFRSYM    DATA     BYTE      P1
      00000080H   SFRSYM    DATA     BYTE      P0

      00FF76C1H   BLOCK     CODE     ---       LVL=0
      000013A8H   SYMBOL    EDATA    INT       uart_n
      000013AAH   SYMBOL    EDATA    INT       uart_rx_pin
      000013ACH   SYMBOL    EDATA    INT       uart_tx_pin
      000013AEH   SYMBOL    EDATA    DWORD     baud
      000013B2H   SYMBOL    EDATA    INT       tim_n
      00FF76D1H   BLOCK     CODE     NEAR LAB  LVL=1
      000013B4H   SYMBOL    EDATA    WORD      brt
      ---         BLOCKEND  ---      ---       LVL=1
      00FF76C1H   LINE      CODE     ---       #45
      00FF76D1H   LINE      CODE     ---       #46
      00FF76D1H   LINE      CODE     ---       #49
      00FF76F8H   LINE      CODE     ---       #52
      00FF771AH   LINE      CODE     ---       #54
      00FF771AH   LINE      CODE     ---       #56
      00FF7726H   LINE      CODE     ---       #58
      00FF7729H   LINE      CODE     ---       #59
      00FF772DH   LINE      CODE     ---       #60
      00FF7733H   LINE      CODE     ---       #61
      00FF773DH   LINE      CODE     ---       #62
      00FF7740H   LINE      CODE     ---       #63
      00FF7743H   LINE      CODE     ---       #64
      00FF7748H   LINE      CODE     ---       #65
      00FF774AH   LINE      CODE     ---       #66
      00FF7756H   LINE      CODE     ---       #68
      00FF7759H   LINE      CODE     ---       #69
      00FF775FH   LINE      CODE     ---       #70
      00FF7769H   LINE      CODE     ---       #71
      00FF776CH   LINE      CODE     ---       #72
      00FF776CH   LINE      CODE     ---       #73
      00FF776FH   LINE      CODE     ---       #74
      00FF7785H   LINE      CODE     ---       #76
      00FF7789H   LINE      CODE     ---       #77
      00FF778BH   LINE      CODE     ---       #78
      00FF77A3H   LINE      CODE     ---       #80
      00FF77A6H   LINE      CODE     ---       #81
      00FF77A8H   LINE      CODE     ---       #82
      00FF77C0H   LINE      CODE     ---       #84
      00FF77C3H   LINE      CODE     ---       #85
      00FF77C5H   LINE      CODE     ---       #86
      00FF77DDH   LINE      CODE     ---       #88
      00FF77E0H   LINE      CODE     ---       #89
      00FF77E0H   LINE      CODE     ---       #90
      00FF77E5H   LINE      CODE     ---       #91
      00FF77E8H   LINE      CODE     ---       #92
      00FF77EBH   LINE      CODE     ---       #95
      00FF77EBH   LINE      CODE     ---       #97
      00FF77F7H   LINE      CODE     ---       #99
      00FF77FAH   LINE      CODE     ---       #100
      00FF7800H   LINE      CODE     ---       #101
L251 LINKER/LOCATER V4.66.93.0                                                        12/27/2024  03:02:31  PAGE 63


      00FF780AH   LINE      CODE     ---       #102
      00FF780DH   LINE      CODE     ---       #103
      00FF780DH   LINE      CODE     ---       #105
      00FF7810H   LINE      CODE     ---       #106
      00FF7828H   LINE      CODE     ---       #108
      00FF782CH   LINE      CODE     ---       #109
      00FF782EH   LINE      CODE     ---       #110
      00FF7846H   LINE      CODE     ---       #112
      00FF7849H   LINE      CODE     ---       #113
      00FF7849H   LINE      CODE     ---       #115
      00FF784CH   LINE      CODE     ---       #116
      00FF7851H   LINE      CODE     ---       #117
      00FF7854H   LINE      CODE     ---       #120
      00FF7854H   LINE      CODE     ---       #122
      00FF7860H   LINE      CODE     ---       #124
      00FF7863H   LINE      CODE     ---       #125
      00FF7869H   LINE      CODE     ---       #126
      00FF7873H   LINE      CODE     ---       #127
      00FF7876H   LINE      CODE     ---       #128
      00FF7878H   LINE      CODE     ---       #129
      00FF7884H   LINE      CODE     ---       #131
      00FF7887H   LINE      CODE     ---       #132
      00FF788DH   LINE      CODE     ---       #133
      00FF7897H   LINE      CODE     ---       #134
      00FF789AH   LINE      CODE     ---       #135
      00FF789AH   LINE      CODE     ---       #137
      00FF789DH   LINE      CODE     ---       #138
      00FF78B5H   LINE      CODE     ---       #140
      00FF78B9H   LINE      CODE     ---       #141
      00FF78BBH   LINE      CODE     ---       #142
      00FF78D3H   LINE      CODE     ---       #144
      00FF78D6H   LINE      CODE     ---       #145
      00FF78D6H   LINE      CODE     ---       #147
      00FF78D9H   LINE      CODE     ---       #148
      00FF78DEH   LINE      CODE     ---       #149
      00FF78E1H   LINE      CODE     ---       #152
      00FF78E1H   LINE      CODE     ---       #154
      00FF78EDH   LINE      CODE     ---       #156
      00FF78F0H   LINE      CODE     ---       #157
      00FF78F6H   LINE      CODE     ---       #158
      00FF7900H   LINE      CODE     ---       #159
      00FF7904H   LINE      CODE     ---       #160
      00FF7906H   LINE      CODE     ---       #161
      00FF7912H   LINE      CODE     ---       #163
      00FF7915H   LINE      CODE     ---       #164
      00FF791BH   LINE      CODE     ---       #165
      00FF7925H   LINE      CODE     ---       #166
      00FF7928H   LINE      CODE     ---       #167
      00FF7928H   LINE      CODE     ---       #169
      00FF792BH   LINE      CODE     ---       #170
      00FF7943H   LINE      CODE     ---       #172
      00FF7947H   LINE      CODE     ---       #173
      00FF7949H   LINE      CODE     ---       #174
      00FF7961H   LINE      CODE     ---       #176
      00FF7964H   LINE      CODE     ---       #177
      00FF7968H   LINE      CODE     ---       #178
      00FF796BH   LINE      CODE     ---       #179
      00FF796BH   LINE      CODE     ---       #180
      00FF796EH   LINE      CODE     ---       #181
      00FF7973H   LINE      CODE     ---       #182
      00FF7973H   LINE      CODE     ---       #185
      00FF7973H   LINE      CODE     ---       #187
      ---         BLOCKEND  ---      ---       LVL=0

      00FF9CAEH   BLOCK     CODE     ---       LVL=0
L251 LINKER/LOCATER V4.66.93.0                                                        12/27/2024  03:02:31  PAGE 64


      00001943H   SYMBOL    EDATA    INT       uart_n
      00001945H   SYMBOL    EDATA    BYTE      dat
      00FF9CAEH   LINE      CODE     ---       #196
      00FF9CB6H   LINE      CODE     ---       #198
      00FF9CC8H   LINE      CODE     ---       #200
      00FF9CC8H   LINE      CODE     ---       #201
      00FF9CD1H   LINE      CODE     ---       #202
      00FF9CD7H   LINE      CODE     ---       #203
      00FF9CDDH   LINE      CODE     ---       #204
      00FF9CDFH   LINE      CODE     ---       #205
      00FF9CDFH   LINE      CODE     ---       #206
      00FF9CE8H   LINE      CODE     ---       #207
      00FF9CEEH   LINE      CODE     ---       #208
      00FF9CF4H   LINE      CODE     ---       #209
      00FF9CF6H   LINE      CODE     ---       #210
      00FF9CF6H   LINE      CODE     ---       #211
      00FF9CFFH   LINE      CODE     ---       #212
      00FF9D05H   LINE      CODE     ---       #213
      00FF9D0BH   LINE      CODE     ---       #214
      00FF9D0DH   LINE      CODE     ---       #215
      00FF9D0DH   LINE      CODE     ---       #216
      00FF9D16H   LINE      CODE     ---       #217
      00FF9D1CH   LINE      CODE     ---       #218
      00FF9D22H   LINE      CODE     ---       #219
      00FF9D22H   LINE      CODE     ---       #220
      00FF9D22H   LINE      CODE     ---       #221
      ---         BLOCKEND  ---      ---       LVL=0
      00001582H   SYMBOL    EDATA    INT       uart_n
      00001584H   SYMBOL    EDATA    ---       p
      00001588H   SYMBOL    EDATA    DWORD     len
      000017F9H   SYMBOL    EDATA    INT       uart_n
      000017FBH   SYMBOL    EDATA    ---       str

      ---         MODULE    ---      ---       zf_fifo
      00FF6CB0H   PUBLIC    CODE     ---       fifo_write_buffer
      00FF9943H   PUBLIC    CODE     ---       fifo_init
      000012F2H   PUBLIC    EDATA    BYTE      ?fifo_write_buffer?BYTE
      00001423H   PUBLIC    EDATA    BYTE      ?fifo_read_element?BYTE
      0000125BH   PUBLIC    EDATA    BYTE      ?fifo_read_buffer?BYTE
      00001273H   PUBLIC    EDATA    BYTE      ?fifo_read_tail_buffer?BYTE
      0000135CH   PUBLIC    EDATA    BYTE      ?fifo_init?BYTE
      000000D0H   SFRSYM    DATA     BYTE      PSW
      0000009DH   SFRSYM    DATA     BYTE      IRCBAND
      00000097H   SFRSYM    DATA     BYTE      AUXR2
      000000EFH   SFRSYM    DATA     BYTE      AUXINTIF
      000000FDH   SFRSYM    DATA     BYTE      S4CON
      000000ACH   SFRSYM    DATA     BYTE      S3CON
      0000009AH   SFRSYM    DATA     BYTE      S2CON
      000000B7H   SFRSYM    DATA     BYTE      IPH
      000000CDH   SFRSYM    DATA     BYTE      SPSTAT
      000000DDH   SFRSYM    DATA     BYTE      T4T3M
      000000C1H   SFRSYM    DATA     BYTE      WDT_CONTR
      000000DFH   SFRSYM    DATA     BYTE      IP3
      000000F4H   SFRSYM    DATA     BYTE      USBCON
      000000B5H   SFRSYM    DATA     BYTE      IP2
      000000FFH   SFRSYM    DATA     BYTE      RSTCFG
      000000C7H   SFRSYM    DATA     BYTE      IAP_CONTR
      000000F9H   SFRSYM    DATA     BYTE      LINICR
      0000008EH   SFRSYM    DATA     BYTE      AUXR
      000000AFH   SFRSYM    DATA     BYTE      IE2
      00000088H   SFRSYM    DATA     BYTE      TCON
      00000089H   SFRSYM    DATA     BYTE      TMOD
      00000098H   SFRSYM    DATA     BYTE      SCON
      000000F1H   SFRSYM    DATA     BYTE      CANICR
      00000087H   SFRSYM    DATA     BYTE      PCON
L251 LINKER/LOCATER V4.66.93.0                                                        12/27/2024  03:02:31  PAGE 65


      000000BCH   SFRSYM    DATA     BYTE      ADC_CONTR
      000000E7H   SFRSYM    DATA     BYTE      CMPCR2
      000000E6H   SFRSYM    DATA     BYTE      CMPCR1
      000000DEH   SFRSYM    DATA     BYTE      ADCCFG
      000000B8H   SFRSYM    DATA     BYTE      IP
      0000008FH   SFRSYM    DATA     BYTE      INTCLKO
      000000EEH   SFRSYM    DATA     BYTE      IP3H
      000000B6H   SFRSYM    DATA     BYTE      IP2H
      000000A8H   SFRSYM    DATA     BYTE      IE
      000000BBH   SFRSYM    DATA     BYTE      P_SW3
      000000BAH   SFRSYM    DATA     BYTE      P_SW2
      000000A2H   SFRSYM    DATA     BYTE      P_SW1
      000000CEH   SFRSYM    DATA     BYTE      SPCTL
      000000F8H   SFRSYM    DATA     BYTE      P7
      000000E8H   SFRSYM    DATA     BYTE      P6
      000000C8H   SFRSYM    DATA     BYTE      P5
      000000C0H   SFRSYM    DATA     BYTE      P4
      000000B0H   SFRSYM    DATA     BYTE      P3
      000000A0H   SFRSYM    DATA     BYTE      P2
      00000090H   SFRSYM    DATA     BYTE      P1
      00000080H   SFRSYM    DATA     BYTE      P0
      00FF9D23H   SYMBOL    CODE     ---       fifo_head_offset

      00FF9D23H   BLOCK     CODE     ---       LVL=0
      0000171BH   SYMBOL    EDATA    ---       fifo
      0000171FH   SYMBOL    EDATA    DWORD     offset
      00FF9D23H   LINE      CODE     ---       #42
      00FF9D2BH   LINE      CODE     ---       #44
      00FF9D47H   LINE      CODE     ---       #46
      00FF9D49H   LINE      CODE     ---       #48
      00FF9D70H   LINE      CODE     ---       #49
      00FF9D92H   LINE      CODE     ---       #50
      ---         BLOCKEND  ---      ---       LVL=0
      00001723H   SYMBOL    EDATA    ---       fifo
      00001727H   SYMBOL    EDATA    DWORD     offset
      000017FFH   SYMBOL    EDATA    ---       fifo
      00001803H   SYMBOL    EDATA    INT       return_state
      000018E3H   SYMBOL    EDATA    ---       fifo
      0000158CH   SYMBOL    EDATA    ---       fifo
      00001590H   SYMBOL    EDATA    DWORD     dat
      00001594H   SYMBOL    EDATA    INT       return_state

      00FF6CB0H   BLOCK     CODE     ---       LVL=0
      000012F2H   SYMBOL    EDATA    ---       fifo
      000012F6H   SYMBOL    EDATA    ---       dat
      000012FAH   SYMBOL    EDATA    DWORD     length
      00FF6CB8H   BLOCK     CODE     NEAR LAB  LVL=1
      000012FEH   SYMBOL    EDATA    INT       return_state
      00001300H   SYMBOL    EDATA    DWORD     temp_length
      ---         BLOCKEND  ---      ---       LVL=1
      00FF6CB0H   LINE      CODE     ---       #168
      00FF6CB8H   LINE      CODE     ---       #169
      00FF6CB8H   LINE      CODE     ---       #171
      00FF6CBEH   LINE      CODE     ---       #172
      00FF6CC4H   LINE      CODE     ---       #174
      00FF6CC4H   LINE      CODE     ---       #176
      00FF6CCCH   LINE      CODE     ---       #178
      00FF6CD4H   LINE      CODE     ---       #179
      00FF6CD7H   LINE      CODE     ---       #180
      00FF6CD7H   LINE      CODE     ---       #181
      00FF6CECH   LINE      CODE     ---       #183
      00FF6CF4H   LINE      CODE     ---       #184
      00FF6CF7H   LINE      CODE     ---       #185
      00FF6CF7H   LINE      CODE     ---       #186
      00FF6D05H   LINE      CODE     ---       #188
L251 LINKER/LOCATER V4.66.93.0                                                        12/27/2024  03:02:31  PAGE 66


      00FF6D1FH   LINE      CODE     ---       #190
      00FF6D43H   LINE      CODE     ---       #192
      00FF6D52H   LINE      CODE     ---       #194
      00FF6D70H   LINE      CODE     ---       #196
      00FF6D70H   LINE      CODE     ---       #198
      00FF6D9FH   LINE      CODE     ---       #201
      00FF6DAAH   LINE      CODE     ---       #202
      00FF6DE7H   LINE      CODE     ---       #206
      00FF6DF8H   LINE      CODE     ---       #207
      00FF6DFBH   LINE      CODE     ---       #208
      00FF6DFBH   LINE      CODE     ---       #210
      00FF6E2EH   LINE      CODE     ---       #213
      00FF6E39H   LINE      CODE     ---       #214
      00FF6E7CH   LINE      CODE     ---       #218
      00FF6E8DH   LINE      CODE     ---       #219
      00FF6E90H   LINE      CODE     ---       #220
      00FF6E90H   LINE      CODE     ---       #222
      00FF6EC7H   LINE      CODE     ---       #225
      00FF6ED2H   LINE      CODE     ---       #226
      00FF6F1BH   LINE      CODE     ---       #230
      00FF6F2CH   LINE      CODE     ---       #231
      00FF6F2CH   LINE      CODE     ---       #232
      00FF6F2CH   LINE      CODE     ---       #233
      00FF6F2FH   LINE      CODE     ---       #236
      00FF6F4AH   LINE      CODE     ---       #238
      00FF6F4AH   LINE      CODE     ---       #240
      00FF6F79H   LINE      CODE     ---       #243
      00FF6F84H   LINE      CODE     ---       #244
      00FF6F87H   LINE      CODE     ---       #245
      00FF6F87H   LINE      CODE     ---       #247
      00FF6FBAH   LINE      CODE     ---       #250
      00FF6FC5H   LINE      CODE     ---       #251
      00FF6FC7H   LINE      CODE     ---       #252
      00FF6FC7H   LINE      CODE     ---       #254
      00FF6FFEH   LINE      CODE     ---       #257
      00FF7009H   LINE      CODE     ---       #258
      00FF7009H   LINE      CODE     ---       #259
      00FF7009H   LINE      CODE     ---       #260
      00FF7009H   LINE      CODE     ---       #262
      00FF7025H   LINE      CODE     ---       #263
      00FF7027H   LINE      CODE     ---       #266
      00FF702FH   LINE      CODE     ---       #267
      00FF702FH   LINE      CODE     ---       #268
      00FF703DH   LINE      CODE     ---       #269
      00FF703DH   LINE      CODE     ---       #271
      00FF7041H   LINE      CODE     ---       #272
      ---         BLOCKEND  ---      ---       LVL=0
      00001423H   SYMBOL    EDATA    ---       fifo
      00001427H   SYMBOL    EDATA    ---       dat
      0000142BH   SYMBOL    EDATA    INT       flag
      0000142DH   SYMBOL    EDATA    INT       return_state
      0000125BH   SYMBOL    EDATA    ---       fifo
      0000125FH   SYMBOL    EDATA    ---       dat
      00001263H   SYMBOL    EDATA    ---       length
      00001267H   SYMBOL    EDATA    INT       flag
      00001269H   SYMBOL    EDATA    INT       return_state
      0000126BH   SYMBOL    EDATA    DWORD     temp_length
      0000126FH   SYMBOL    EDATA    DWORD     fifo_data_length
      00001273H   SYMBOL    EDATA    ---       fifo
      00001277H   SYMBOL    EDATA    ---       dat
      0000127BH   SYMBOL    EDATA    ---       length
      0000127FH   SYMBOL    EDATA    INT       flag
      00001281H   SYMBOL    EDATA    INT       return_state
      00001283H   SYMBOL    EDATA    DWORD     temp_length
      00001287H   SYMBOL    EDATA    DWORD     fifo_data_length
L251 LINKER/LOCATER V4.66.93.0                                                        12/27/2024  03:02:31  PAGE 67



      00FF9943H   BLOCK     CODE     ---       LVL=0
      0000135CH   SYMBOL    EDATA    ---       fifo
      00001360H   SYMBOL    EDATA    INT       type
      00001362H   SYMBOL    EDATA    ---       buffer_addr
      00001366H   SYMBOL    EDATA    DWORD     len
      00FF994BH   BLOCK     CODE     NEAR LAB  LVL=1
      0000136AH   SYMBOL    EDATA    INT       return_state
      ---         BLOCKEND  ---      ---       LVL=1
      00FF9943H   LINE      CODE     ---       #538
      00FF994BH   LINE      CODE     ---       #539
      00FF994BH   LINE      CODE     ---       #541
      00FF9951H   LINE      CODE     ---       #542
      00FF9951H   LINE      CODE     ---       #544
      00FF9964H   LINE      CODE     ---       #545
      00FF996CH   LINE      CODE     ---       #546
      00FF9979H   LINE      CODE     ---       #547
      00FF998AH   LINE      CODE     ---       #548
      00FF999BH   LINE      CODE     ---       #549
      00FF99AEH   LINE      CODE     ---       #550
      00FF99C1H   LINE      CODE     ---       #551
      00FF99C1H   LINE      CODE     ---       #552
      00FF99C5H   LINE      CODE     ---       #553
      ---         BLOCKEND  ---      ---       LVL=0

      ---         MODULE    ---      ---       SEEKFREE_18TFT
      00FF90A4H   PUBLIC    CODE     ---       lcd_showuint16
      00FFA033H   PUBLIC    CODE     ---       lcd_clear
      00FF9F7DH   PUBLIC    CODE     ---       lcd_showstr
      00FFA5DEH   PUBLIC    CODE     ---       lcd_writeIndex
      00FFA5F3H   PUBLIC    CODE     ---       lcd_writeData
      00FF9DFDH   PUBLIC    CODE     ---       lcd_set_region
      00FF7E8DH   PUBLIC    CODE     ---       lcd_init
      00FFA3C6H   PUBLIC    CODE     ---       lcd_writedata_16bit
      00FF8702H   PUBLIC    CODE     ---       lcd_showfloat
      00FF923EH   PUBLIC    CODE     ---       lcd_showchar
      00000E1EH   PUBLIC    EDATA    BYTE      ?lcd_showfloat_simspi?BYTE
      00000E4EH   PUBLIC    EDATA    BYTE      ?lcd_showfloat?BYTE
      000000D0H   SFRSYM    DATA     BYTE      PSW
      0000009DH   SFRSYM    DATA     BYTE      IRCBAND
      00000097H   SFRSYM    DATA     BYTE      AUXR2
      000000EFH   SFRSYM    DATA     BYTE      AUXINTIF
      000000FDH   SFRSYM    DATA     BYTE      S4CON
      000000ACH   SFRSYM    DATA     BYTE      S3CON
      0000009AH   SFRSYM    DATA     BYTE      S2CON
      000000B7H   SFRSYM    DATA     BYTE      IPH
      000000CDH   SFRSYM    DATA     BYTE      SPSTAT
      000000DDH   SFRSYM    DATA     BYTE      T4T3M
      000000C1H   SFRSYM    DATA     BYTE      WDT_CONTR
      000000DFH   SFRSYM    DATA     BYTE      IP3
      000000F4H   SFRSYM    DATA     BYTE      USBCON
      000000B5H   SFRSYM    DATA     BYTE      IP2
      000000FFH   SFRSYM    DATA     BYTE      RSTCFG
      000000C7H   SFRSYM    DATA     BYTE      IAP_CONTR
      000000F9H   SFRSYM    DATA     BYTE      LINICR
      0000008EH   SFRSYM    DATA     BYTE      AUXR
      000000AFH   SFRSYM    DATA     BYTE      IE2
      000000A0H.5 SFRSYM    DATA     BIT       P25
      00000088H   SFRSYM    DATA     BYTE      TCON
      00000089H   SFRSYM    DATA     BYTE      TMOD
      000000A0H.3 SFRSYM    DATA     BIT       P23
      00000098H   SFRSYM    DATA     BYTE      SCON
      000000A0H.2 SFRSYM    DATA     BIT       P22
      000000A0H.1 SFRSYM    DATA     BIT       P21
      000000A0H.0 SFRSYM    DATA     BIT       P20
L251 LINKER/LOCATER V4.66.93.0                                                        12/27/2024  03:02:31  PAGE 68


      000000F1H   SFRSYM    DATA     BYTE      CANICR
      00000087H   SFRSYM    DATA     BYTE      PCON
      000000BCH   SFRSYM    DATA     BYTE      ADC_CONTR
      000000E7H   SFRSYM    DATA     BYTE      CMPCR2
      000000E6H   SFRSYM    DATA     BYTE      CMPCR1
      000000DEH   SFRSYM    DATA     BYTE      ADCCFG
      000000B8H   SFRSYM    DATA     BYTE      IP
      0000008FH   SFRSYM    DATA     BYTE      INTCLKO
      000000EEH   SFRSYM    DATA     BYTE      IP3H
      000000B6H   SFRSYM    DATA     BYTE      IP2H
      000000A8H   SFRSYM    DATA     BYTE      IE
      000000BBH   SFRSYM    DATA     BYTE      P_SW3
      000000BAH   SFRSYM    DATA     BYTE      P_SW2
      000000A2H   SFRSYM    DATA     BYTE      P_SW1
      000000CEH   SFRSYM    DATA     BYTE      SPCTL
      000000F8H   SFRSYM    DATA     BYTE      P7
      000000E8H   SFRSYM    DATA     BYTE      P6
      000000C8H   SFRSYM    DATA     BYTE      P5
      000000C0H   SFRSYM    DATA     BYTE      P4
      000000B0H   SFRSYM    DATA     BYTE      P3
      000000A0H   SFRSYM    DATA     BYTE      P2
      00000090H   SFRSYM    DATA     BYTE      P1
      00000080H   SFRSYM    DATA     BYTE      P0
      00001993H   SYMBOL    EDATA    BYTE      dat
      00001994H   SYMBOL    EDATA    BYTE      i
      00001995H   SYMBOL    EDATA    BYTE      dat
      00001996H   SYMBOL    EDATA    BYTE      i
      00001946H   SYMBOL    EDATA    WORD      dat
      00001948H   SYMBOL    EDATA    BYTE      i
      0000172BH   SYMBOL    EDATA    WORD      x_start
      0000172DH   SYMBOL    EDATA    WORD      y_start
      0000172FH   SYMBOL    EDATA    WORD      x_end
      00001731H   SYMBOL    EDATA    WORD      y_end
      000018E7H   SYMBOL    EDATA    INT       color
      000018E9H   SYMBOL    EDATA    BYTE      i
      000018EAH   SYMBOL    EDATA    BYTE      j
      00001805H   SYMBOL    EDATA    WORD      x
      00001807H   SYMBOL    EDATA    WORD      y
      00001809H   SYMBOL    EDATA    WORD      color
      00001733H   SYMBOL    EDATA    WORD      x
      00001735H   SYMBOL    EDATA    WORD      y
      00001737H   SYMBOL    EDATA    CHAR      dat
      00001738H   SYMBOL    EDATA    BYTE      i
      00001739H   SYMBOL    EDATA    BYTE      j
      0000173AH   SYMBOL    EDATA    BYTE      temp
      00001596H   SYMBOL    EDATA    WORD      x
      00001598H   SYMBOL    EDATA    WORD      y
      0000159AH   SYMBOL    EDATA    ---       dat
      0000159EH   SYMBOL    EDATA    WORD      j
      0000160EH   SYMBOL    EDATA    WORD      x
      00001610H   SYMBOL    EDATA    WORD      y
      00001612H   SYMBOL    EDATA    CHAR      dat
      00001613H   SYMBOL    EDATA    ---       a
      00001616H   SYMBOL    EDATA    BYTE      i
      00001617H   SYMBOL    EDATA    WORD      x
      00001619H   SYMBOL    EDATA    WORD      y
      0000161BH   SYMBOL    EDATA    BYTE      dat
      0000161CH   SYMBOL    EDATA    ---       a
      0000161FH   SYMBOL    EDATA    BYTE      i
      0000142FH   SYMBOL    EDATA    WORD      x
      00001431H   SYMBOL    EDATA    WORD      y
      00001433H   SYMBOL    EDATA    INT       dat
      00001435H   SYMBOL    EDATA    ---       a
      0000143AH   SYMBOL    EDATA    BYTE      i
      0000143BH   SYMBOL    EDATA    WORD      x
L251 LINKER/LOCATER V4.66.93.0                                                        12/27/2024  03:02:31  PAGE 69


      0000143DH   SYMBOL    EDATA    WORD      y
      0000143FH   SYMBOL    EDATA    WORD      dat
      00001441H   SYMBOL    EDATA    ---       a
      00001446H   SYMBOL    EDATA    BYTE      i
      00000F6DH   SYMBOL    EDATA    WORD      x
      00000F6FH   SYMBOL    EDATA    WORD      y
      00000F71H   SYMBOL    EDATA    LONG      dat
      00000F75H   SYMBOL    EDATA    BYTE      num
      00000F76H   SYMBOL    EDATA    ---       buff
      00000F98H   SYMBOL    EDATA    BYTE      length
      00000E1EH   SYMBOL    EDATA    WORD      x
      00000E20H   SYMBOL    EDATA    WORD      y
      00000E22H   SYMBOL    EDATA    FLOAT     dat
      00000E26H   SYMBOL    EDATA    BYTE      num
      00000E27H   SYMBOL    EDATA    BYTE      pointnum
      00000E28H   SYMBOL    EDATA    BYTE      length
      00000E29H   SYMBOL    EDATA    ---       buff
      00000E4BH   SYMBOL    EDATA    CHAR      start
      00000E4CH   SYMBOL    EDATA    CHAR      end
      00000E4DH   SYMBOL    EDATA    CHAR      point

      00FFA5DEH   BLOCK     CODE     ---       LVL=0
      000019F7H   SYMBOL    EDATA    BYTE      dat
      00FFA5DEH   LINE      CODE     ---       #607
      00FFA5E2H   LINE      CODE     ---       #610
      00FFA5E5H   LINE      CODE     ---       #611
      00FFA5E8H   LINE      CODE     ---       #612
      00FFA5EFH   LINE      CODE     ---       #613
      00FFA5F2H   LINE      CODE     ---       #614
      ---         BLOCKEND  ---      ---       LVL=0

      00FFA5F3H   BLOCK     CODE     ---       LVL=0
      000019F8H   SYMBOL    EDATA    BYTE      dat
      00FFA5F3H   LINE      CODE     ---       #623
      00FFA5F7H   LINE      CODE     ---       #625
      00FFA5FAH   LINE      CODE     ---       #626
      00FFA5FDH   LINE      CODE     ---       #627
      00FFA604H   LINE      CODE     ---       #628
      00FFA607H   LINE      CODE     ---       #629
      ---         BLOCKEND  ---      ---       LVL=0

      00FFA3C6H   BLOCK     CODE     ---       LVL=0
      000018EBH   SYMBOL    EDATA    WORD      dat
      00FFA3CAH   BLOCK     CODE     NEAR LAB  LVL=1
      000018EDH   SYMBOL    EDATA    ---       dat1
      ---         BLOCKEND  ---      ---       LVL=1
      00FFA3C6H   LINE      CODE     ---       #638
      00FFA3CAH   LINE      CODE     ---       #639
      00FFA3CAH   LINE      CODE     ---       #642
      00FFA3D0H   LINE      CODE     ---       #643
      00FFA3D8H   LINE      CODE     ---       #645
      00FFA3DBH   LINE      CODE     ---       #646
      00FFA3DEH   LINE      CODE     ---       #647
      00FFA3E5H   LINE      CODE     ---       #648
      00FFA3ECH   LINE      CODE     ---       #649
      00FFA3EFH   LINE      CODE     ---       #651
      ---         BLOCKEND  ---      ---       LVL=0

      00FF9DFDH   BLOCK     CODE     ---       LVL=0
      0000173BH   SYMBOL    EDATA    WORD      x_start
      0000173DH   SYMBOL    EDATA    WORD      y_start
      0000173FH   SYMBOL    EDATA    WORD      x_end
      00001741H   SYMBOL    EDATA    WORD      y_end
      00FF9DFDH   LINE      CODE     ---       #663
      00FF9E0DH   LINE      CODE     ---       #668
L251 LINKER/LOCATER V4.66.93.0                                                        12/27/2024  03:02:31  PAGE 70


      00FF9E12H   LINE      CODE     ---       #669
      00FF9E16H   LINE      CODE     ---       #670
      00FF9E23H   LINE      CODE     ---       #671
      00FF9E27H   LINE      CODE     ---       #672
      00FF9E34H   LINE      CODE     ---       #674
      00FF9E39H   LINE      CODE     ---       #675
      00FF9E3DH   LINE      CODE     ---       #676
      00FF9E4AH   LINE      CODE     ---       #677
      00FF9E4EH   LINE      CODE     ---       #678
      00FF9E5BH   LINE      CODE     ---       #695
      00FF9E60H   LINE      CODE     ---       #696
      ---         BLOCKEND  ---      ---       LVL=0

      00FFA033H   BLOCK     CODE     ---       LVL=0
      000018EFH   SYMBOL    EDATA    INT       color
      00FFA037H   BLOCK     CODE     NEAR LAB  LVL=1
      000018F1H   SYMBOL    EDATA    BYTE      i
      000018F2H   SYMBOL    EDATA    BYTE      j
      ---         BLOCKEND  ---      ---       LVL=1
      00FFA033H   LINE      CODE     ---       #705
      00FFA037H   LINE      CODE     ---       #706
      00FFA037H   LINE      CODE     ---       #708
      00FFA046H   LINE      CODE     ---       #709
      00FFA04DH   LINE      CODE     ---       #710
      00FFA054H   LINE      CODE     ---       #711
      00FFA089H   LINE      CODE     ---       #712
      ---         BLOCKEND  ---      ---       LVL=0

      00FF7E8DH   BLOCK     CODE     ---       LVL=0
      00FF7E8DH   LINE      CODE     ---       #721
      00FF7E8DH   LINE      CODE     ---       #723
      00FF7EADH   LINE      CODE     ---       #725
      00FF7EB0H   LINE      CODE     ---       #726
      00FF7EB7H   LINE      CODE     ---       #727
      00FF7EBAH   LINE      CODE     ---       #728
      00FF7EC1H   LINE      CODE     ---       #729
      00FF7EC6H   LINE      CODE     ---       #730
      00FF7ECDH   LINE      CODE     ---       #732
      00FF7ED2H   LINE      CODE     ---       #733
      00FF7ED7H   LINE      CODE     ---       #734
      00FF7EDCH   LINE      CODE     ---       #735
      00FF7EE1H   LINE      CODE     ---       #737
      00FF7EE6H   LINE      CODE     ---       #738
      00FF7EEBH   LINE      CODE     ---       #739
      00FF7EF0H   LINE      CODE     ---       #740
      00FF7EF5H   LINE      CODE     ---       #742
      00FF7EFAH   LINE      CODE     ---       #743
      00FF7EFFH   LINE      CODE     ---       #744
      00FF7F04H   LINE      CODE     ---       #745
      00FF7F09H   LINE      CODE     ---       #746
      00FF7F0EH   LINE      CODE     ---       #747
      00FF7F13H   LINE      CODE     ---       #748
      00FF7F18H   LINE      CODE     ---       #750
      00FF7F1DH   LINE      CODE     ---       #751
      00FF7F22H   LINE      CODE     ---       #753
      00FF7F27H   LINE      CODE     ---       #754
      00FF7F2CH   LINE      CODE     ---       #755
      00FF7F31H   LINE      CODE     ---       #756
      00FF7F36H   LINE      CODE     ---       #757
      00FF7F3BH   LINE      CODE     ---       #758
      00FF7F40H   LINE      CODE     ---       #760
      00FF7F45H   LINE      CODE     ---       #761
      00FF7F4AH   LINE      CODE     ---       #762
      00FF7F4EH   LINE      CODE     ---       #764
      00FF7F53H   LINE      CODE     ---       #765
L251 LINKER/LOCATER V4.66.93.0                                                        12/27/2024  03:02:31  PAGE 71


      00FF7F58H   LINE      CODE     ---       #766
      00FF7F5DH   LINE      CODE     ---       #767
      00FF7F62H   LINE      CODE     ---       #768
      00FF7F67H   LINE      CODE     ---       #769
      00FF7F6CH   LINE      CODE     ---       #771
      00FF7F71H   LINE      CODE     ---       #772
      00FF7F76H   LINE      CODE     ---       #774
      00FF7F7BH   LINE      CODE     ---       #779
      00FF7F7FH   LINE      CODE     ---       #786
      00FF7F84H   LINE      CODE     ---       #787
      00FF7F89H   LINE      CODE     ---       #788
      00FF7F8EH   LINE      CODE     ---       #789
      00FF7F93H   LINE      CODE     ---       #790
      00FF7F98H   LINE      CODE     ---       #791
      00FF7F9DH   LINE      CODE     ---       #792
      00FF7FA2H   LINE      CODE     ---       #793
      00FF7FA7H   LINE      CODE     ---       #794
      00FF7FACH   LINE      CODE     ---       #795
      00FF7FB1H   LINE      CODE     ---       #796
      00FF7FB6H   LINE      CODE     ---       #797
      00FF7FBBH   LINE      CODE     ---       #798
      00FF7FC0H   LINE      CODE     ---       #799
      00FF7FC4H   LINE      CODE     ---       #800
      00FF7FC9H   LINE      CODE     ---       #801
      00FF7FCEH   LINE      CODE     ---       #802
      00FF7FD3H   LINE      CODE     ---       #804
      00FF7FD8H   LINE      CODE     ---       #805
      00FF7FDDH   LINE      CODE     ---       #806
      00FF7FE2H   LINE      CODE     ---       #807
      00FF7FE7H   LINE      CODE     ---       #808
      00FF7FECH   LINE      CODE     ---       #809
      00FF7FF1H   LINE      CODE     ---       #810
      00FF7FF6H   LINE      CODE     ---       #811
      00FF7FFBH   LINE      CODE     ---       #812
      00FF8000H   LINE      CODE     ---       #813
      00FF8005H   LINE      CODE     ---       #814
      00FF800AH   LINE      CODE     ---       #815
      00FF800FH   LINE      CODE     ---       #816
      00FF8014H   LINE      CODE     ---       #817
      00FF8018H   LINE      CODE     ---       #818
      00FF801DH   LINE      CODE     ---       #819
      00FF8022H   LINE      CODE     ---       #820
      00FF8027H   LINE      CODE     ---       #822
      00FF802CH   LINE      CODE     ---       #823
      00FF8030H   LINE      CODE     ---       #824
      00FF8035H   LINE      CODE     ---       #825
      00FF8039H   LINE      CODE     ---       #826
      00FF803EH   LINE      CODE     ---       #828
      00FF8043H   LINE      CODE     ---       #829
      00FF8047H   LINE      CODE     ---       #830
      00FF804CH   LINE      CODE     ---       #831
      00FF8050H   LINE      CODE     ---       #832
      00FF8055H   LINE      CODE     ---       #834
      00FF805AH   LINE      CODE     ---       #835
      00FF805FH   LINE      CODE     ---       #836
      00FF8064H   LINE      CODE     ---       #837
      00FF8068H   LINE      CODE     ---       #839
      00FF806DH   LINE      CODE     ---       #840
      00FF8072H   LINE      CODE     ---       #841
      00FF8077H   LINE      CODE     ---       #843
      00FF807EH   LINE      CODE     ---       #844
      ---         BLOCKEND  ---      ---       LVL=0
      0000180BH   SYMBOL    EDATA    WORD      x
      0000180DH   SYMBOL    EDATA    WORD      y
      0000180FH   SYMBOL    EDATA    WORD      color
L251 LINKER/LOCATER V4.66.93.0                                                        12/27/2024  03:02:31  PAGE 72



      00FF923EH   BLOCK     CODE     ---       LVL=0
      00001743H   SYMBOL    EDATA    WORD      x
      00001745H   SYMBOL    EDATA    WORD      y
      00001747H   SYMBOL    EDATA    CHAR      dat
      00FF924AH   BLOCK     CODE     NEAR LAB  LVL=1
      00001748H   SYMBOL    EDATA    BYTE      i
      00001749H   SYMBOL    EDATA    BYTE      j
      0000174AH   SYMBOL    EDATA    BYTE      temp
      ---         BLOCKEND  ---      ---       LVL=1
      00FF923EH   LINE      CODE     ---       #872
      00FF924AH   LINE      CODE     ---       #873
      00FF924AH   LINE      CODE     ---       #877
      00FF9252H   LINE      CODE     ---       #879
      00FF927BH   LINE      CODE     ---       #880
      00FF92A3H   LINE      CODE     ---       #881
      00FF92AAH   LINE      CODE     ---       #883
      00FF92BAH   LINE      CODE     ---       #884
      00FF92C1H   LINE      CODE     ---       #885
      00FF92CBH   LINE      CODE     ---       #886
      00FF92E2H   LINE      CODE     ---       #887
      00FF92FCH   LINE      CODE     ---       #888
      ---         BLOCKEND  ---      ---       LVL=0

      00FF9F7DH   BLOCK     CODE     ---       LVL=0
      000015A0H   SYMBOL    EDATA    WORD      x
      000015A2H   SYMBOL    EDATA    WORD      y
      000015A4H   SYMBOL    EDATA    ---       dat
      00FF9F89H   BLOCK     CODE     NEAR LAB  LVL=1
      000015A8H   SYMBOL    EDATA    WORD      j
      ---         BLOCKEND  ---      ---       LVL=1
      00FF9F7DH   LINE      CODE     ---       #899
      00FF9F89H   LINE      CODE     ---       #900
      00FF9F89H   LINE      CODE     ---       #903
      00FF9F8FH   LINE      CODE     ---       #904
      00FF9F91H   LINE      CODE     ---       #906
      00FF9FBBH   LINE      CODE     ---       #907
      00FF9FC9H   LINE      CODE     ---       #908
      00FF9FD9H   LINE      CODE     ---       #909
      ---         BLOCKEND  ---      ---       LVL=0
      00001620H   SYMBOL    EDATA    WORD      x
      00001622H   SYMBOL    EDATA    WORD      y
      00001624H   SYMBOL    EDATA    CHAR      dat
      00001625H   SYMBOL    EDATA    ---       a
      00001628H   SYMBOL    EDATA    BYTE      i
      00001629H   SYMBOL    EDATA    WORD      x
      0000162BH   SYMBOL    EDATA    WORD      y
      0000162DH   SYMBOL    EDATA    BYTE      dat
      0000162EH   SYMBOL    EDATA    ---       a
      00001631H   SYMBOL    EDATA    BYTE      i
      00001447H   SYMBOL    EDATA    WORD      x
      00001449H   SYMBOL    EDATA    WORD      y
      0000144BH   SYMBOL    EDATA    INT       dat
      0000144DH   SYMBOL    EDATA    ---       a
      00001452H   SYMBOL    EDATA    BYTE      i

      00FF90A4H   BLOCK     CODE     ---       LVL=0
      00001453H   SYMBOL    EDATA    WORD      x
      00001455H   SYMBOL    EDATA    WORD      y
      00001457H   SYMBOL    EDATA    WORD      dat
      00FF90B0H   BLOCK     CODE     NEAR LAB  LVL=1
      00001459H   SYMBOL    EDATA    ---       a
      0000145EH   SYMBOL    EDATA    BYTE      i
      ---         BLOCKEND  ---      ---       LVL=1
      00FF90A4H   LINE      CODE     ---       #1011
L251 LINKER/LOCATER V4.66.93.0                                                        12/27/2024  03:02:31  PAGE 73


      00FF90B0H   LINE      CODE     ---       #1012
      00FF90B0H   LINE      CODE     ---       #1016
      00FF90BEH   LINE      CODE     ---       #1017
      00FF90D4H   LINE      CODE     ---       #1018
      00FF90EAH   LINE      CODE     ---       #1019
      00FF9100H   LINE      CODE     ---       #1020
      00FF9110H   LINE      CODE     ---       #1022
      00FF9115H   LINE      CODE     ---       #1023
      00FF9117H   LINE      CODE     ---       #1025
      00FF9159H   LINE      CODE     ---       #1026
      00FF9166H   LINE      CODE     ---       #1027
      00FF9170H   LINE      CODE     ---       #1028
      ---         BLOCKEND  ---      ---       LVL=0
      00000F99H   SYMBOL    EDATA    WORD      x
      00000F9BH   SYMBOL    EDATA    WORD      y
      00000F9DH   SYMBOL    EDATA    LONG      dat
      00000FA1H   SYMBOL    EDATA    BYTE      num
      00000FA2H   SYMBOL    EDATA    ---       buff
      00000FC4H   SYMBOL    EDATA    BYTE      length

      00FF8702H   BLOCK     CODE     ---       LVL=0
      00000E4EH   SYMBOL    EDATA    WORD      x
      00000E50H   SYMBOL    EDATA    WORD      y
      00000E52H   SYMBOL    EDATA    FLOAT     dat
      00000E56H   SYMBOL    EDATA    BYTE      num
      00000E57H   SYMBOL    EDATA    BYTE      pointnum
      00FF8712H   BLOCK     CODE     NEAR LAB  LVL=1
      00000E58H   SYMBOL    EDATA    BYTE      length
      00000E59H   SYMBOL    EDATA    ---       buff
      00000E7BH   SYMBOL    EDATA    CHAR      start
      00000E7CH   SYMBOL    EDATA    CHAR      end
      00000E7DH   SYMBOL    EDATA    CHAR      point
      ---         BLOCKEND  ---      ---       LVL=1
      00FF8702H   LINE      CODE     ---       #1082
      00FF8712H   LINE      CODE     ---       #1083
      00FF8712H   LINE      CODE     ---       #1088
      00FF8722H   LINE      CODE     ---       #1089
      00FF8732H   LINE      CODE     ---       #1091
      00FF875AH   LINE      CODE     ---       #1094
      00FF8775H   LINE      CODE     ---       #1095
      00FF8782H   LINE      CODE     ---       #1096
      00FF8782H   LINE      CODE     ---       #1097
      00FF8792H   LINE      CODE     ---       #1098
      00FF87AAH   LINE      CODE     ---       #1099
      00FF87C2H   LINE      CODE     ---       #1100
      00FF87C4H   LINE      CODE     ---       #1102
      00FF87D5H   LINE      CODE     ---       #1103
      00FF87E2H   LINE      CODE     ---       #1104
      00FF87EFH   LINE      CODE     ---       #1105
      00FF87F8H   LINE      CODE     ---       #1107
      00FF8816H   LINE      CODE     ---       #1108
      00FF8827H   LINE      CODE     ---       #1110
      00FF8837H   LINE      CODE     ---       #1112
      00FF8846H   LINE      CODE     ---       #1113
      ---         BLOCKEND  ---      ---       LVL=0
      0000145FH   SYMBOL    EDATA    ---       p
      00001463H   SYMBOL    EDATA    INT       i
      00001465H   SYMBOL    EDATA    INT       j
      00001467H   SYMBOL    EDATA    INT       k
      00001469H   SYMBOL    EDATA    BYTE      picH
      0000146AH   SYMBOL    EDATA    BYTE      picL

      ---         MODULE    ---      ---       SEEKFREE_ABSOLUTE_ENCODER
      000000D0H   SFRSYM    DATA     BYTE      PSW
      0000009DH   SFRSYM    DATA     BYTE      IRCBAND
L251 LINKER/LOCATER V4.66.93.0                                                        12/27/2024  03:02:31  PAGE 74


      00000097H   SFRSYM    DATA     BYTE      AUXR2
      000000EFH   SFRSYM    DATA     BYTE      AUXINTIF
      000000FDH   SFRSYM    DATA     BYTE      S4CON
      000000ACH   SFRSYM    DATA     BYTE      S3CON
      0000009AH   SFRSYM    DATA     BYTE      S2CON
      000000B7H   SFRSYM    DATA     BYTE      IPH
      000000CDH   SFRSYM    DATA     BYTE      SPSTAT
      000000DDH   SFRSYM    DATA     BYTE      T4T3M
      000000C1H   SFRSYM    DATA     BYTE      WDT_CONTR
      000000DFH   SFRSYM    DATA     BYTE      IP3
      000000F4H   SFRSYM    DATA     BYTE      USBCON
      000000B5H   SFRSYM    DATA     BYTE      IP2
      000000FFH   SFRSYM    DATA     BYTE      RSTCFG
      000000C7H   SFRSYM    DATA     BYTE      IAP_CONTR
      000000F9H   SFRSYM    DATA     BYTE      LINICR
      0000008EH   SFRSYM    DATA     BYTE      AUXR
      000000AFH   SFRSYM    DATA     BYTE      IE2
      000000A0H.7 SFRSYM    DATA     BIT       P27
      000000A0H.6 SFRSYM    DATA     BIT       P26
      000000A0H.5 SFRSYM    DATA     BIT       P25
      000000A0H.4 SFRSYM    DATA     BIT       P24
      00000088H   SFRSYM    DATA     BYTE      TCON
      00000089H   SFRSYM    DATA     BYTE      TMOD
      00000098H   SFRSYM    DATA     BYTE      SCON
      000000A0H.2 SFRSYM    DATA     BIT       P22
      000000F1H   SFRSYM    DATA     BYTE      CANICR
      00000087H   SFRSYM    DATA     BYTE      PCON
      000000BCH   SFRSYM    DATA     BYTE      ADC_CONTR
      000000E7H   SFRSYM    DATA     BYTE      CMPCR2
      000000E6H   SFRSYM    DATA     BYTE      CMPCR1
      000000DEH   SFRSYM    DATA     BYTE      ADCCFG
      000000B8H   SFRSYM    DATA     BYTE      IP
      0000008FH   SFRSYM    DATA     BYTE      INTCLKO
      000000EEH   SFRSYM    DATA     BYTE      IP3H
      000000B6H   SFRSYM    DATA     BYTE      IP2H
      000000A8H   SFRSYM    DATA     BYTE      IE
      000000BBH   SFRSYM    DATA     BYTE      P_SW3
      000000BAH   SFRSYM    DATA     BYTE      P_SW2
      000000A2H   SFRSYM    DATA     BYTE      P_SW1
      000000CEH   SFRSYM    DATA     BYTE      SPCTL
      000000F8H   SFRSYM    DATA     BYTE      P7
      000000E8H   SFRSYM    DATA     BYTE      P6
      000000C8H   SFRSYM    DATA     BYTE      P5
      000000C0H   SFRSYM    DATA     BYTE      P4
      000000B0H   SFRSYM    DATA     BYTE      P3
      000000A0H   SFRSYM    DATA     BYTE      P2
      00000090H   SFRSYM    DATA     BYTE      P1
      00000080H   SFRSYM    DATA     BYTE      P0
      00001997H   SYMBOL    EDATA    WORD      x
      00001999H   SYMBOL    EDATA    BYTE      byte
      0000199AH   SYMBOL    EDATA    BYTE      i
      0000199BH   SYMBOL    EDATA    BYTE      cmd
      0000199CH   SYMBOL    EDATA    BYTE      val
      0000188EH   SYMBOL    EDATA    BYTE      cmd
      0000188FH   SYMBOL    EDATA    ---       val
      00001949H   SYMBOL    EDATA    BYTE      cmd
      0000194AH   SYMBOL    EDATA    BYTE      val
      0000194BH   SYMBOL    EDATA    BYTE      dat
      00001893H   SYMBOL    EDATA    BYTE      cmd
      00001894H   SYMBOL    EDATA    ---       val
      0000199DH   SYMBOL    EDATA    WORD      zero_position
      0000199FH   SYMBOL    EDATA    WORD      angle
      000019F9H   SYMBOL    EDATA    BYTE      val
      000019FAH   SYMBOL    EDATA    BYTE      byte
      000019A1H   SYMBOL    EDATA    BYTE      cmd
L251 LINKER/LOCATER V4.66.93.0                                                        12/27/2024  03:02:31  PAGE 75


      000019A2H   SYMBOL    EDATA    BYTE      val
      00001898H   SYMBOL    EDATA    BYTE      cmd
      00001899H   SYMBOL    EDATA    ---       val
      0000194CH   SYMBOL    EDATA    BYTE      cmd
      0000194DH   SYMBOL    EDATA    BYTE      val
      0000194EH   SYMBOL    EDATA    BYTE      dat
      0000189DH   SYMBOL    EDATA    BYTE      cmd
      0000189EH   SYMBOL    EDATA    ---       val
      000019A3H   SYMBOL    EDATA    WORD      zero_position
      000019A5H   SYMBOL    EDATA    WORD      angle
      000019FBH   SYMBOL    EDATA    BYTE      val

      ---         MODULE    ---      ---       SEEKFREE_BLUETOOTH_CH9141
      00FFA52CH   PUBLIC    CODE     ---       bluetooth_ch9141_uart_callback
      000000D0H   SFRSYM    DATA     BYTE      PSW
      0000009DH   SFRSYM    DATA     BYTE      IRCBAND
      00000097H   SFRSYM    DATA     BYTE      AUXR2
      000000EFH   SFRSYM    DATA     BYTE      AUXINTIF
      000000FDH   SFRSYM    DATA     BYTE      S4CON
      000000ACH   SFRSYM    DATA     BYTE      S3CON
      0000009AH   SFRSYM    DATA     BYTE      S2CON
      0000009BH   SFRSYM    DATA     BYTE      S2BUF
      000000B7H   SFRSYM    DATA     BYTE      IPH
      000000CDH   SFRSYM    DATA     BYTE      SPSTAT
      000000DDH   SFRSYM    DATA     BYTE      T4T3M
      000000C1H   SFRSYM    DATA     BYTE      WDT_CONTR
      000000DFH   SFRSYM    DATA     BYTE      IP3
      000000F4H   SFRSYM    DATA     BYTE      USBCON
      000000B5H   SFRSYM    DATA     BYTE      IP2
      000000FFH   SFRSYM    DATA     BYTE      RSTCFG
      000000C7H   SFRSYM    DATA     BYTE      IAP_CONTR
      000000F9H   SFRSYM    DATA     BYTE      LINICR
      0000008EH   SFRSYM    DATA     BYTE      AUXR
      000000AFH   SFRSYM    DATA     BYTE      IE2
      00000080H.7 SFRSYM    DATA     BIT       P07
      00000088H   SFRSYM    DATA     BYTE      TCON
      00000089H   SFRSYM    DATA     BYTE      TMOD
      00000098H   SFRSYM    DATA     BYTE      SCON
      000000F1H   SFRSYM    DATA     BYTE      CANICR
      00000087H   SFRSYM    DATA     BYTE      PCON
      000000BCH   SFRSYM    DATA     BYTE      ADC_CONTR
      000000E7H   SFRSYM    DATA     BYTE      CMPCR2
      000000E6H   SFRSYM    DATA     BYTE      CMPCR1
      000000DEH   SFRSYM    DATA     BYTE      ADCCFG
      000000B8H   SFRSYM    DATA     BYTE      IP
      0000008FH   SFRSYM    DATA     BYTE      INTCLKO
      000000EEH   SFRSYM    DATA     BYTE      IP3H
      000000B6H   SFRSYM    DATA     BYTE      IP2H
      000000A8H   SFRSYM    DATA     BYTE      IE
      000000BBH   SFRSYM    DATA     BYTE      P_SW3
      000000BAH   SFRSYM    DATA     BYTE      P_SW2
      000000A2H   SFRSYM    DATA     BYTE      P_SW1
      000000CEH   SFRSYM    DATA     BYTE      SPCTL
      000000F8H   SFRSYM    DATA     BYTE      P7
      000000E8H   SFRSYM    DATA     BYTE      P6
      000000C8H   SFRSYM    DATA     BYTE      P5
      000000C0H   SFRSYM    DATA     BYTE      P4
      000000B0H   SFRSYM    DATA     BYTE      P3
      000000A0H   SFRSYM    DATA     BYTE      P2
      00000090H   SFRSYM    DATA     BYTE      P1
      00000080H   SFRSYM    DATA     BYTE      P0
      00000D02H   SYMBOL    EDATA    ---       bluetooth_ch9141_buffer
      00000D42H   SYMBOL    EDATA    BYTE      bluetooth_ch9141_data
      00000D43H   SYMBOL    EDATA    ---       bluetooth_ch9141_fifo

L251 LINKER/LOCATER V4.66.93.0                                                        12/27/2024  03:02:31  PAGE 76


      00FFA52CH   BLOCK     CODE     ---       LVL=0
      00FFA52CH   LINE      CODE     ---       #67
      00FFA52CH   LINE      CODE     ---       #70
      00FFA532H   LINE      CODE     ---       #71
      00FFA545H   LINE      CODE     ---       #72
      ---         BLOCKEND  ---      ---       LVL=0
      000015AAH   SYMBOL    EDATA    ---       buff
      000015AEH   SYMBOL    EDATA    DWORD     len
      000015B2H   SYMBOL    EDATA    WORD      time_count
      0000146BH   SYMBOL    EDATA    ---       buff
      0000146FH   SYMBOL    EDATA    DWORD     len
      00001473H   SYMBOL    EDATA    DWORD     data_len

      ---         MODULE    ---      ---       SEEKFREE_DL1A
      0000194FH   PUBLIC    EDATA    WORD      dl1a_distance_mm
      00001951H   PUBLIC    EDATA    BYTE      dl1a_finsh_flag
      000000D0H   SFRSYM    DATA     BYTE      PSW
      0000009DH   SFRSYM    DATA     BYTE      IRCBAND
      00000097H   SFRSYM    DATA     BYTE      AUXR2
      000000EFH   SFRSYM    DATA     BYTE      AUXINTIF
      000000FDH   SFRSYM    DATA     BYTE      S4CON
      000000ACH   SFRSYM    DATA     BYTE      S3CON
      0000009AH   SFRSYM    DATA     BYTE      S2CON
      000000B7H   SFRSYM    DATA     BYTE      IPH
      000000CDH   SFRSYM    DATA     BYTE      SPSTAT
      000000DDH   SFRSYM    DATA     BYTE      T4T3M
      000000C1H   SFRSYM    DATA     BYTE      WDT_CONTR
      000000DFH   SFRSYM    DATA     BYTE      IP3
      000000F4H   SFRSYM    DATA     BYTE      USBCON
      000000B5H   SFRSYM    DATA     BYTE      IP2
      000000FFH   SFRSYM    DATA     BYTE      RSTCFG
      000000C7H   SFRSYM    DATA     BYTE      IAP_CONTR
      000000F9H   SFRSYM    DATA     BYTE      LINICR
      0000008EH   SFRSYM    DATA     BYTE      AUXR
      000000AFH   SFRSYM    DATA     BYTE      IE2
      000000B0H.7 SFRSYM    DATA     BIT       P37
      000000B0H.6 SFRSYM    DATA     BIT       P36
      000000C8H.2 SFRSYM    DATA     BIT       P52
      00000088H   SFRSYM    DATA     BYTE      TCON
      00000089H   SFRSYM    DATA     BYTE      TMOD
      00000098H   SFRSYM    DATA     BYTE      SCON
      000000F1H   SFRSYM    DATA     BYTE      CANICR
      00000087H   SFRSYM    DATA     BYTE      PCON
      000000BCH   SFRSYM    DATA     BYTE      ADC_CONTR
      000000E7H   SFRSYM    DATA     BYTE      CMPCR2
      000000E6H   SFRSYM    DATA     BYTE      CMPCR1
      000000DEH   SFRSYM    DATA     BYTE      ADCCFG
      000000B8H   SFRSYM    DATA     BYTE      IP
      0000008FH   SFRSYM    DATA     BYTE      INTCLKO
      000000EEH   SFRSYM    DATA     BYTE      IP3H
      000000B6H   SFRSYM    DATA     BYTE      IP2H
      000000A8H   SFRSYM    DATA     BYTE      IE
      000000BBH   SFRSYM    DATA     BYTE      P_SW3
      000000BAH   SFRSYM    DATA     BYTE      P_SW2
      000000A2H   SFRSYM    DATA     BYTE      P_SW1
      000000CEH   SFRSYM    DATA     BYTE      SPCTL
      000000F8H   SFRSYM    DATA     BYTE      P7
      000000E8H   SFRSYM    DATA     BYTE      P6
      000000C8H   SFRSYM    DATA     BYTE      P5
      000000C0H   SFRSYM    DATA     BYTE      P4
      000000B0H   SFRSYM    DATA     BYTE      P3
      000000A0H   SFRSYM    DATA     BYTE      P2
      00000090H   SFRSYM    DATA     BYTE      P1
      00000080H   SFRSYM    DATA     BYTE      P0
      000019A7H   SYMBOL    EDATA    WORD      j
L251 LINKER/LOCATER V4.66.93.0                                                        12/27/2024  03:02:31  PAGE 77


      000019FCH   SYMBOL    EDATA    BYTE      ack_dat
      000019A9H   SYMBOL    EDATA    BYTE      c
      000019AAH   SYMBOL    EDATA    BYTE      i
      00001952H   SYMBOL    EDATA    BYTE      ack_x
      00001953H   SYMBOL    EDATA    BYTE      i
      00001954H   SYMBOL    EDATA    BYTE      c
      00001632H   SYMBOL    EDATA    BYTE      dev_add
      00001633H   SYMBOL    EDATA    ---       dat
      00001637H   SYMBOL    EDATA    DWORD     len
      00001955H   SYMBOL    EDATA    BYTE      dev_add
      00001956H   SYMBOL    EDATA    BYTE      reg
      00001957H   SYMBOL    EDATA    BYTE      dat
      00001958H   SYMBOL    EDATA    BYTE      dev_add
      00001959H   SYMBOL    EDATA    BYTE      reg
      0000195AH   SYMBOL    EDATA    BYTE      dat
      000015B4H   SYMBOL    EDATA    BYTE      dev_add
      000015B5H   SYMBOL    EDATA    BYTE      reg
      000015B6H   SYMBOL    EDATA    ---       dat_add
      000015BAH   SYMBOL    EDATA    DWORD     num
      000015BEH   SYMBOL    EDATA    BYTE      dev_add
      000015BFH   SYMBOL    EDATA    BYTE      reg
      000015C0H   SYMBOL    EDATA    ---       dat_add
      000015C4H   SYMBOL    EDATA    DWORD     num
      00001477H   SYMBOL    EDATA    ---       index
      0000147BH   SYMBOL    EDATA    ---       type_is_aperture
      0000147FH   SYMBOL    EDATA    BYTE      tmp
      00001480H   SYMBOL    EDATA    BYTE      return_state
      00001481H   SYMBOL    EDATA    WORD      loop_count
      000017AAH   SYMBOL    EDATA    WORD      timeout_period_mclks
      000017ACH   SYMBOL    EDATA    BYTE      vcsel_period_pclks
      000017ADH   SYMBOL    EDATA    DWORD     macro_period_ns
      0000163BH   SYMBOL    EDATA    DWORD     timeout_period_us
      0000163FH   SYMBOL    EDATA    BYTE      vcsel_period_pclks
      00001640H   SYMBOL    EDATA    DWORD     macro_period_ns
      000019ABH   SYMBOL    EDATA    WORD      reg_val
      000015C8H   SYMBOL    EDATA    WORD      timeout_mclks
      000015CAH   SYMBOL    EDATA    DWORD     ls_byte
      000015CEH   SYMBOL    EDATA    WORD      ms_byte
      000015D0H   SYMBOL    EDATA    WORD      return_data
      000018A2H   SYMBOL    EDATA    ---       enables
      000018A6H   SYMBOL    EDATA    BYTE      sequence_config
      0000195BH   SYMBOL    EDATA    INT       type
      0000195DH   SYMBOL    EDATA    BYTE      data_buffer
      00001483H   SYMBOL    EDATA    ---       enables
      00001487H   SYMBOL    EDATA    ---       timeouts
      0000148BH   SYMBOL    EDATA    ---       reg_buffer
      0000148DH   SYMBOL    EDATA    WORD      reg16_buffer
      000018A7H   SYMBOL    EDATA    BYTE      vhv_init_byte
      000018A8H   SYMBOL    EDATA    BYTE      return_state
      000018A9H   SYMBOL    EDATA    BYTE      data_buffer
      000018AAH   SYMBOL    EDATA    WORD      loop_count
      00000F3EH   SYMBOL    EDATA    DWORD     budget_us
      00000F42H   SYMBOL    EDATA    BYTE      return_state
      00000F43H   SYMBOL    EDATA    ---       data_buffer
      00000F46H   SYMBOL    EDATA    WORD      dat
      00000F48H   SYMBOL    EDATA    DWORD     used_budget_us
      00000F4CH   SYMBOL    EDATA    DWORD     final_range_timeout_us
      00000F50H   SYMBOL    EDATA    WORD      final_range_timeout_mclks
      00000F52H   SYMBOL    EDATA    ---       enables
      00000F57H   SYMBOL    EDATA    ---       timeouts
      00001159H   SYMBOL    EDATA    ---       enables
      0000115EH   SYMBOL    EDATA    ---       timeouts
      00001174H   SYMBOL    EDATA    DWORD     budget_us
      00001644H   SYMBOL    EDATA    FLOAT     limit_mcps
      00001648H   SYMBOL    EDATA    ---       data_buffer
L251 LINKER/LOCATER V4.66.93.0                                                        12/27/2024  03:02:31  PAGE 78


      0000164BH   SYMBOL    EDATA    WORD      limit_mcps_16bit
      0000195EH   SYMBOL    EDATA    ---       reg_databuffer
      000012A1H   SYMBOL    EDATA    DWORD     measurement_timing_budget_us
      000012A5H   SYMBOL    EDATA    BYTE      stop_variable
      000012A6H   SYMBOL    EDATA    BYTE      return_state
      000012A7H   SYMBOL    EDATA    BYTE      reg_data_buffer
      000012A8H   SYMBOL    EDATA    ---       ref_spad_map
      000012AEH   SYMBOL    EDATA    ---       data_buffer
      000012B5H   SYMBOL    EDATA    BYTE      i

      ---         MODULE    ---      ---       SEEKFREE_DL1B
      00FF9BBEH   PUBLIC    CODE     ---       dl1b_iic_transfer_8bit_array
      00FF897DH   PUBLIC    CODE     ---       dl1b_get_distance
      00FF8CDFH   PUBLIC    CODE     ---       dl1b_init
      000018F3H   PUBLIC    EDATA    WORD      dl1b_distance_mm
      000018F5H   PUBLIC    EDATA    BYTE      dl1b_finsh_flag
      000018F6H   PUBLIC    EDATA    BYTE      dl1b_init_flag
      0000136CH   PUBLIC    EDATA    BYTE      ?dl1b_iic_transfer_8bit_array?BYTE
      000000D0H   SFRSYM    DATA     BYTE      PSW
      0000009DH   SFRSYM    DATA     BYTE      IRCBAND
      00000097H   SFRSYM    DATA     BYTE      AUXR2
      000000EFH   SFRSYM    DATA     BYTE      AUXINTIF
      000000FDH   SFRSYM    DATA     BYTE      S4CON
      000000ACH   SFRSYM    DATA     BYTE      S3CON
      0000009AH   SFRSYM    DATA     BYTE      S2CON
      000000B7H   SFRSYM    DATA     BYTE      IPH
      000000CDH   SFRSYM    DATA     BYTE      SPSTAT
      000000DDH   SFRSYM    DATA     BYTE      T4T3M
      000000C1H   SFRSYM    DATA     BYTE      WDT_CONTR
      000000DFH   SFRSYM    DATA     BYTE      IP3
      000000F4H   SFRSYM    DATA     BYTE      USBCON
      000000B5H   SFRSYM    DATA     BYTE      IP2
      000000FFH   SFRSYM    DATA     BYTE      RSTCFG
      000000C7H   SFRSYM    DATA     BYTE      IAP_CONTR
      000000F9H   SFRSYM    DATA     BYTE      LINICR
      0000008EH   SFRSYM    DATA     BYTE      AUXR
      000000AFH   SFRSYM    DATA     BYTE      IE2
      000000B0H.7 SFRSYM    DATA     BIT       P37
      000000B0H.6 SFRSYM    DATA     BIT       P36
      000000C8H.2 SFRSYM    DATA     BIT       P52
      00000088H   SFRSYM    DATA     BYTE      TCON
      00000089H   SFRSYM    DATA     BYTE      TMOD
      00000098H   SFRSYM    DATA     BYTE      SCON
      000000F1H   SFRSYM    DATA     BYTE      CANICR
      00000087H   SFRSYM    DATA     BYTE      PCON
      000000BCH   SFRSYM    DATA     BYTE      ADC_CONTR
      000000E7H   SFRSYM    DATA     BYTE      CMPCR2
      000000E6H   SFRSYM    DATA     BYTE      CMPCR1
      000000DEH   SFRSYM    DATA     BYTE      ADCCFG
      000000B8H   SFRSYM    DATA     BYTE      IP
      0000008FH   SFRSYM    DATA     BYTE      INTCLKO
      000000EEH   SFRSYM    DATA     BYTE      IP3H
      000000B6H   SFRSYM    DATA     BYTE      IP2H
      000000A8H   SFRSYM    DATA     BYTE      IE
      000000BBH   SFRSYM    DATA     BYTE      P_SW3
      000000BAH   SFRSYM    DATA     BYTE      P_SW2
      000000A2H   SFRSYM    DATA     BYTE      P_SW1
      000000CEH   SFRSYM    DATA     BYTE      SPCTL
      000000F8H   SFRSYM    DATA     BYTE      P7
      000000E8H   SFRSYM    DATA     BYTE      P6
      000000C8H   SFRSYM    DATA     BYTE      P5
      000000C0H   SFRSYM    DATA     BYTE      P4
      000000B0H   SFRSYM    DATA     BYTE      P3
      000000A0H   SFRSYM    DATA     BYTE      P2
      00000090H   SFRSYM    DATA     BYTE      P1
L251 LINKER/LOCATER V4.66.93.0                                                        12/27/2024  03:02:31  PAGE 79


      00000080H   SFRSYM    DATA     BYTE      P0
      00FFA3F0H   SYMBOL    CODE     ---       dl1b_simiic_sendack
      00FF9D93H   SYMBOL    CODE     ---       dl1b_read_ch
      00FFA21AH   SYMBOL    CODE     ---       dl1b_send_ch
      00FFA4ECH   SYMBOL    CODE     ---       dl1b_sccb_waitack
      00FF0026H   SYMBOL    CODE     ---       dl1b_simiic_delay
      00FFA61CH   SYMBOL    CODE     ---       dl1b_simiic_start
      00FFA5C8H   SYMBOL    CODE     ---       dl1b_simiic_stop

      00FF0026H   BLOCK     CODE     ---       LVL=0
      000019ADH   SYMBOL    EDATA    WORD      j
      00FF0026H   LINE      CODE     ---       #58
      00FF0026H   LINE      CODE     ---       #59
      00FF0026H   LINE      CODE     ---       #60
      00FF002CH   LINE      CODE     ---       #61
      00FF0042H   LINE      CODE     ---       #62
      ---         BLOCKEND  ---      ---       LVL=0

      00FFA61CH   BLOCK     CODE     ---       LVL=0
      00FFA61CH   LINE      CODE     ---       #65
      00FFA61CH   LINE      CODE     ---       #67
      00FFA61FH   LINE      CODE     ---       #68
      00FFA622H   LINE      CODE     ---       #69
      00FFA625H   LINE      CODE     ---       #70
      00FFA628H   LINE      CODE     ---       #71
      00FFA62BH   LINE      CODE     ---       #72
      00FFA62EH   LINE      CODE     ---       #73
      ---         BLOCKEND  ---      ---       LVL=0

      00FFA5C8H   BLOCK     CODE     ---       LVL=0
      00FFA5C8H   LINE      CODE     ---       #76
      00FFA5C8H   LINE      CODE     ---       #78
      00FFA5CBH   LINE      CODE     ---       #79
      00FFA5CEH   LINE      CODE     ---       #80
      00FFA5D1H   LINE      CODE     ---       #81
      00FFA5D4H   LINE      CODE     ---       #82
      00FFA5D7H   LINE      CODE     ---       #83
      00FFA5DAH   LINE      CODE     ---       #84
      00FFA5DDH   LINE      CODE     ---       #85
      ---         BLOCKEND  ---      ---       LVL=0

      00FFA3F0H   BLOCK     CODE     ---       LVL=0
      000019FDH   SYMBOL    EDATA    BYTE      ack_dat
      00FFA3F0H   LINE      CODE     ---       #89
      00FFA3F4H   LINE      CODE     ---       #91
      00FFA3F7H   LINE      CODE     ---       #92
      00FFA3FAH   LINE      CODE     ---       #93
      00FFA408H   LINE      CODE     ---       #94
      00FFA40BH   LINE      CODE     ---       #96
      00FFA40EH   LINE      CODE     ---       #97
      00FFA411H   LINE      CODE     ---       #98
      00FFA414H   LINE      CODE     ---       #99
      00FFA417H   LINE      CODE     ---       #100
      ---         BLOCKEND  ---      ---       LVL=0

      00FFA4ECH   BLOCK     CODE     ---       LVL=0
      00FFA4ECH   LINE      CODE     ---       #103
      00FFA4ECH   LINE      CODE     ---       #105
      00FFA4EFH   LINE      CODE     ---       #107
      00FFA4F2H   LINE      CODE     ---       #109
      00FFA4F5H   LINE      CODE     ---       #110
      00FFA4F8H   LINE      CODE     ---       #112
      00FFA4FBH   LINE      CODE     ---       #115
      00FFA4FEH   LINE      CODE     ---       #116
      00FFA502H   LINE      CODE     ---       #117
L251 LINKER/LOCATER V4.66.93.0                                                        12/27/2024  03:02:31  PAGE 80


      00FFA502H   LINE      CODE     ---       #119
      00FFA505H   LINE      CODE     ---       #120
      00FFA508H   LINE      CODE     ---       #121
      00FFA50CH   LINE      CODE     ---       #122
      ---         BLOCKEND  ---      ---       LVL=0

      00FFA21AH   BLOCK     CODE     ---       LVL=0
      000019AFH   SYMBOL    EDATA    BYTE      c
      00FFA21EH   BLOCK     CODE     NEAR LAB  LVL=1
      000019B0H   SYMBOL    EDATA    BYTE      i
      ---         BLOCKEND  ---      ---       LVL=1
      00FFA21AH   LINE      CODE     ---       #128
      00FFA21EH   LINE      CODE     ---       #129
      00FFA21EH   LINE      CODE     ---       #130
      00FFA224H   LINE      CODE     ---       #131
      00FFA226H   LINE      CODE     ---       #133
      00FFA232H   LINE      CODE     ---       #134
      00FFA235H   LINE      CODE     ---       #135
      00FFA23FH   LINE      CODE     ---       #136
      00FFA242H   LINE      CODE     ---       #137
      00FFA245H   LINE      CODE     ---       #138
      00FFA248H   LINE      CODE     ---       #139
      00FFA24BH   LINE      CODE     ---       #140
      00FFA25FH   LINE      CODE     ---       #141
      00FFA262H   LINE      CODE     ---       #142
      ---         BLOCKEND  ---      ---       LVL=0

      00FF9D93H   BLOCK     CODE     ---       LVL=0
      00001961H   SYMBOL    EDATA    BYTE      ack_x
      00FF9D97H   BLOCK     CODE     NEAR LAB  LVL=1
      00001962H   SYMBOL    EDATA    BYTE      i
      00001963H   SYMBOL    EDATA    BYTE      c
      ---         BLOCKEND  ---      ---       LVL=1
      00FF9D93H   LINE      CODE     ---       #148
      00FF9D97H   LINE      CODE     ---       #149
      00FF9D97H   LINE      CODE     ---       #152
      00FF9D9CH   LINE      CODE     ---       #153
      00FF9D9FH   LINE      CODE     ---       #154
      00FF9DA2H   LINE      CODE     ---       #155
      00FF9DA5H   LINE      CODE     ---       #157
      00FF9DACH   LINE      CODE     ---       #159
      00FF9DAFH   LINE      CODE     ---       #160
      00FF9DB2H   LINE      CODE     ---       #161
      00FF9DB5H   LINE      CODE     ---       #162
      00FF9DB8H   LINE      CODE     ---       #163
      00FF9DBBH   LINE      CODE     ---       #164
      00FF9DC5H   LINE      CODE     ---       #165
      00FF9DC8H   LINE      CODE     ---       #167
      00FF9DD4H   LINE      CODE     ---       #168
      00FF9DEBH   LINE      CODE     ---       #171
      00FF9DEEH   LINE      CODE     ---       #172
      00FF9DF1H   LINE      CODE     ---       #173
      00FF9DF8H   LINE      CODE     ---       #175
      00FF9DFCH   LINE      CODE     ---       #176
      ---         BLOCKEND  ---      ---       LVL=0

      00FF9BBEH   BLOCK     CODE     ---       LVL=0
      0000136CH   SYMBOL    EDATA    ---       write_data
      00001370H   SYMBOL    EDATA    DWORD     write_len
      00001374H   SYMBOL    EDATA    ---       read_data
      00001378H   SYMBOL    EDATA    DWORD     read_len
      00FF9BBEH   LINE      CODE     ---       #189
      00FF9BC6H   LINE      CODE     ---       #192
      00FF9BC9H   LINE      CODE     ---       #193
      00FF9BCEH   LINE      CODE     ---       #194
L251 LINKER/LOCATER V4.66.93.0                                                        12/27/2024  03:02:31  PAGE 81


      00FF9BD0H   LINE      CODE     ---       #196
      00FF9BE0H   LINE      CODE     ---       #197
      00FF9BF4H   LINE      CODE     ---       #198
      00FF9BF7H   LINE      CODE     ---       #199
      00FF9BFCH   LINE      CODE     ---       #200
      00FF9BFEH   LINE      CODE     ---       #203
      00FF9C1FH   LINE      CODE     ---       #204
      00FF9C33H   LINE      CODE     ---       #205
      00FF9C36H   LINE      CODE     ---       #206
      ---         BLOCKEND  ---      ---       LVL=0

      00FF897DH   BLOCK     CODE     ---       LVL=0
      00FF8989H   BLOCK     CODE     NEAR LAB  LVL=1
      000018ACH   SYMBOL    EDATA    ---       data_buffer
      000018AFH   SYMBOL    EDATA    INT       dl1b_distance_temp
      ---         BLOCKEND  ---      ---       LVL=1
      00FF897DH   LINE      CODE     ---       #219
      00FF897DH   LINE      CODE     ---       #221
      00FF8989H   LINE      CODE     ---       #222
      00FF8989H   LINE      CODE     ---       #224
      00FF898FH   LINE      CODE     ---       #226
      00FF8994H   LINE      CODE     ---       #227
      00FF899AH   LINE      CODE     ---       #228
      00FF89B5H   LINE      CODE     ---       #230
      00FF89C1H   LINE      CODE     ---       #233
      00FF89C6H   LINE      CODE     ---       #234
      00FF89CCH   LINE      CODE     ---       #235
      00FF89D2H   LINE      CODE     ---       #236
      00FF89EBH   LINE      CODE     ---       #238
      00FF89F0H   LINE      CODE     ---       #239
      00FF89F6H   LINE      CODE     ---       #240
      00FF8A11H   LINE      CODE     ---       #242
      00FF8A1AH   LINE      CODE     ---       #244
      00FF8A1FH   LINE      CODE     ---       #245
      00FF8A25H   LINE      CODE     ---       #246
      00FF8A40H   LINE      CODE     ---       #247
      00FF8A4AH   LINE      CODE     ---       #248
      00FF8A5EH   LINE      CODE     ---       #250
      00FF8A74H   LINE      CODE     ---       #252
      00FF8A7CH   LINE      CODE     ---       #253
      00FF8A81H   LINE      CODE     ---       #254
      00FF8A83H   LINE      CODE     ---       #257
      00FF8A8BH   LINE      CODE     ---       #258
      00FF8A91H   LINE      CODE     ---       #259
      00FF8A91H   LINE      CODE     ---       #260
      00FF8A93H   LINE      CODE     ---       #263
      00FF8A9BH   LINE      CODE     ---       #264
      00FF8AA0H   LINE      CODE     ---       #265
      00FF8AA0H   LINE      CODE     ---       #266
      00FF8AA2H   LINE      CODE     ---       #269
      00FF8AAAH   LINE      CODE     ---       #270
      00FF8AAFH   LINE      CODE     ---       #271
      00FF8AAFH   LINE      CODE     ---       #272
      ---         BLOCKEND  ---      ---       LVL=0

      00FF8CDFH   BLOCK     CODE     ---       LVL=0
      00000C17H   SYMBOL    EDATA    BYTE      return_state
      00000C18H   SYMBOL    EDATA    ---       data_buffer
      00000CA1H   SYMBOL    EDATA    WORD      time_out_count
      00FF8CDFH   LINE      CODE     ---       #284
      00FF8CDFH   LINE      CODE     ---       #285
      00FF8CDFH   LINE      CODE     ---       #286
      00FF8CE4H   LINE      CODE     ---       #288
      00FF8CEAH   LINE      CODE     ---       #291
      00FF8CEAH   LINE      CODE     ---       #293
L251 LINKER/LOCATER V4.66.93.0                                                        12/27/2024  03:02:31  PAGE 82


      00FF8CF1H   LINE      CODE     ---       #294
      00FF8CF4H   LINE      CODE     ---       #295
      00FF8CFBH   LINE      CODE     ---       #296
      00FF8CFEH   LINE      CODE     ---       #297
      00FF8D05H   LINE      CODE     ---       #299
      00FF8D0AH   LINE      CODE     ---       #300
      00FF8D10H   LINE      CODE     ---       #301
      00FF8D2BH   LINE      CODE     ---       #302
      00FF8D43H   LINE      CODE     ---       #303
      00FF8D4FH   LINE      CODE     ---       #305
      00FF8D4FH   LINE      CODE     ---       #306
      00FF8D4FH   LINE      CODE     ---       #308
      00FF8D54H   LINE      CODE     ---       #309
      00FF8D5AH   LINE      CODE     ---       #310
      00FF8D71H   LINE      CODE     ---       #311
      00FF8D8AH   LINE      CODE     ---       #313
      00FF8D8AH   LINE      CODE     ---       #315
      00FF8D8FH   LINE      CODE     ---       #316
      00FF8D95H   LINE      CODE     ---       #317
      00FF8DB0H   LINE      CODE     ---       #318
      00FF8DB7H   LINE      CODE     ---       #320
      00FF8DBDH   LINE      CODE     ---       #321
      00FF8DBFH   LINE      CODE     ---       #322
      00FF8DBFH   LINE      CODE     ---       #323
      00FF8DD5H   LINE      CODE     ---       #325
      00FF8DDBH   LINE      CODE     ---       #326
      00FF8DDDH   LINE      CODE     ---       #327
      00FF8DDDH   LINE      CODE     ---       #328
      00FF8DE4H   LINE      CODE     ---       #329
      00FF8DE6H   LINE      CODE     ---       #331
      00FF8DECH   LINE      CODE     ---       #332
      00FF8DECH   LINE      CODE     ---       #335
      00FF8DF0H   LINE      CODE     ---       #336
      ---         BLOCKEND  ---      ---       LVL=0

      ---         MODULE    ---      ---       SEEKFREE_FONT
      00FF212DH   PUBLIC    CODE     ---       ascii_font_8x16
      00FF271DH   PUBLIC    CODE     ---       oled_8x16
      00FF2D0DH   PUBLIC    CODE     ---       tft_ascii
      00FF32FDH   PUBLIC    CODE     ---       ascii_font_6x8
      00FF3525H   PUBLIC    CODE     ---       oled_6x8
      000000D0H   SFRSYM    DATA     BYTE      PSW
      0000009DH   SFRSYM    DATA     BYTE      IRCBAND
      00000097H   SFRSYM    DATA     BYTE      AUXR2
      000000EFH   SFRSYM    DATA     BYTE      AUXINTIF
      000000FDH   SFRSYM    DATA     BYTE      S4CON
      000000ACH   SFRSYM    DATA     BYTE      S3CON
      0000009AH   SFRSYM    DATA     BYTE      S2CON
      000000B7H   SFRSYM    DATA     BYTE      IPH
      000000CDH   SFRSYM    DATA     BYTE      SPSTAT
      000000DDH   SFRSYM    DATA     BYTE      T4T3M
      000000C1H   SFRSYM    DATA     BYTE      WDT_CONTR
      000000DFH   SFRSYM    DATA     BYTE      IP3
      000000F4H   SFRSYM    DATA     BYTE      USBCON
      000000B5H   SFRSYM    DATA     BYTE      IP2
      000000FFH   SFRSYM    DATA     BYTE      RSTCFG
      000000C7H   SFRSYM    DATA     BYTE      IAP_CONTR
      000000F9H   SFRSYM    DATA     BYTE      LINICR
      0000008EH   SFRSYM    DATA     BYTE      AUXR
      000000AFH   SFRSYM    DATA     BYTE      IE2
      00000088H   SFRSYM    DATA     BYTE      TCON
      00000089H   SFRSYM    DATA     BYTE      TMOD
      00000098H   SFRSYM    DATA     BYTE      SCON
      000000F1H   SFRSYM    DATA     BYTE      CANICR
      00000087H   SFRSYM    DATA     BYTE      PCON
L251 LINKER/LOCATER V4.66.93.0                                                        12/27/2024  03:02:31  PAGE 83


      000000BCH   SFRSYM    DATA     BYTE      ADC_CONTR
      000000E7H   SFRSYM    DATA     BYTE      CMPCR2
      000000E6H   SFRSYM    DATA     BYTE      CMPCR1
      000000DEH   SFRSYM    DATA     BYTE      ADCCFG
      000000B8H   SFRSYM    DATA     BYTE      IP
      0000008FH   SFRSYM    DATA     BYTE      INTCLKO
      000000EEH   SFRSYM    DATA     BYTE      IP3H
      000000B6H   SFRSYM    DATA     BYTE      IP2H
      000000A8H   SFRSYM    DATA     BYTE      IE
      000000BBH   SFRSYM    DATA     BYTE      P_SW3
      000000BAH   SFRSYM    DATA     BYTE      P_SW2
      000000A2H   SFRSYM    DATA     BYTE      P_SW1
      000000CEH   SFRSYM    DATA     BYTE      SPCTL
      000000F8H   SFRSYM    DATA     BYTE      P7
      000000E8H   SFRSYM    DATA     BYTE      P6
      000000C8H   SFRSYM    DATA     BYTE      P5
      000000C0H   SFRSYM    DATA     BYTE      P4
      000000B0H   SFRSYM    DATA     BYTE      P3
      000000A0H   SFRSYM    DATA     BYTE      P2
      00000090H   SFRSYM    DATA     BYTE      P1
      00000080H   SFRSYM    DATA     BYTE      P0

      ---         MODULE    ---      ---       SEEKFREE_FUNCTION
      00FF4E2EH   PUBLIC    CODE     ---       zf_sprintf
      00000CCBH   PUBLIC    EDATA    BYTE      ?zf_sprintf?BYTE
      000000D0H   SFRSYM    DATA     BYTE      PSW
      0000009DH   SFRSYM    DATA     BYTE      IRCBAND
      00000097H   SFRSYM    DATA     BYTE      AUXR2
      000000EFH   SFRSYM    DATA     BYTE      AUXINTIF
      000000FDH   SFRSYM    DATA     BYTE      S4CON
      000000ACH   SFRSYM    DATA     BYTE      S3CON
      0000009AH   SFRSYM    DATA     BYTE      S2CON
      000000B7H   SFRSYM    DATA     BYTE      IPH
      000000CDH   SFRSYM    DATA     BYTE      SPSTAT
      000000DDH   SFRSYM    DATA     BYTE      T4T3M
      000000C1H   SFRSYM    DATA     BYTE      WDT_CONTR
      000000DFH   SFRSYM    DATA     BYTE      IP3
      000000F4H   SFRSYM    DATA     BYTE      USBCON
      000000B5H   SFRSYM    DATA     BYTE      IP2
      000000FFH   SFRSYM    DATA     BYTE      RSTCFG
      000000C7H   SFRSYM    DATA     BYTE      IAP_CONTR
      000000F9H   SFRSYM    DATA     BYTE      LINICR
      0000008EH   SFRSYM    DATA     BYTE      AUXR
      000000AFH   SFRSYM    DATA     BYTE      IE2
      00000088H   SFRSYM    DATA     BYTE      TCON
      00000089H   SFRSYM    DATA     BYTE      TMOD
      00000098H   SFRSYM    DATA     BYTE      SCON
      000000F1H   SFRSYM    DATA     BYTE      CANICR
      00000087H   SFRSYM    DATA     BYTE      PCON
      000000BCH   SFRSYM    DATA     BYTE      ADC_CONTR
      000000E7H   SFRSYM    DATA     BYTE      CMPCR2
      000000E6H   SFRSYM    DATA     BYTE      CMPCR1
      000000DEH   SFRSYM    DATA     BYTE      ADCCFG
      000000B8H   SFRSYM    DATA     BYTE      IP
      0000008FH   SFRSYM    DATA     BYTE      INTCLKO
      000000EEH   SFRSYM    DATA     BYTE      IP3H
      000000B6H   SFRSYM    DATA     BYTE      IP2H
      000000A8H   SFRSYM    DATA     BYTE      IE
      000000BBH   SFRSYM    DATA     BYTE      P_SW3
      000000BAH   SFRSYM    DATA     BYTE      P_SW2
      000000A2H   SFRSYM    DATA     BYTE      P_SW1
      000000CEH   SFRSYM    DATA     BYTE      SPCTL
      000000F8H   SFRSYM    DATA     BYTE      P7
      000000E8H   SFRSYM    DATA     BYTE      P6
      000000C8H   SFRSYM    DATA     BYTE      P5
L251 LINKER/LOCATER V4.66.93.0                                                        12/27/2024  03:02:31  PAGE 84


      000000C0H   SFRSYM    DATA     BYTE      P4
      000000B0H   SFRSYM    DATA     BYTE      P3
      000000A0H   SFRSYM    DATA     BYTE      P2
      00000090H   SFRSYM    DATA     BYTE      P1
      00000080H   SFRSYM    DATA     BYTE      P0
      00FF8BC8H   SYMBOL    CODE     ---       number_conversion_ascii
      00FF9716H   SYMBOL    CODE     ---       printf_reverse_order
      00FFB346H   SYMBOL    HCONST   ---       ?tpl?0001
      0000174BH   SYMBOL    EDATA    DWORD     num1
      0000174FH   SYMBOL    EDATA    DWORD     num2
      000018F7H   SYMBOL    EDATA    LONG      t
      0000164DH   SYMBOL    EDATA    ---       str
      00001651H   SYMBOL    EDATA    BYTE      sign
      00001652H   SYMBOL    EDATA    LONG      temp
      000011B6H   SYMBOL    EDATA    ---       str
      000011BAH   SYMBOL    EDATA    LONG      number
      000011BEH   SYMBOL    EDATA    ---       data_temp
      000011CEH   SYMBOL    EDATA    BYTE      dat_bit
      000011CFH   SYMBOL    EDATA    LONG      number_temp
      00001753H   SYMBOL    EDATA    ---       str
      00001757H   SYMBOL    EDATA    DWORD     temp
      00001229H   SYMBOL    EDATA    ---       str
      0000122DH   SYMBOL    EDATA    DWORD     number
      00001231H   SYMBOL    EDATA    ---       data_temp
      00001241H   SYMBOL    EDATA    BYTE      dat_bit
      0000133AH   SYMBOL    EDATA    ---       str
      0000133EH   SYMBOL    EDATA    BYTE      sign
      0000133FH   SYMBOL    EDATA    FLOAT     temp
      00001343H   SYMBOL    EDATA    FLOAT     temp_point
      00001347H   SYMBOL    EDATA    FLOAT     point_bit
      00001075H   SYMBOL    EDATA    ---       str
      00001079H   SYMBOL    EDATA    FLOAT     number
      0000107DH   SYMBOL    EDATA    BYTE      point_bit
      0000107EH   SYMBOL    EDATA    INT       data_int
      00001080H   SYMBOL    EDATA    INT       data_float
      00001082H   SYMBOL    EDATA    ---       data_temp
      00001092H   SYMBOL    EDATA    ---       data_temp_point
      0000109EH   SYMBOL    EDATA    BYTE      dat_bit
      0000134BH   SYMBOL    EDATA    ---       str
      0000134FH   SYMBOL    EDATA    BYTE      sign
      00001350H   SYMBOL    EDATA    FLOAT     temp
      00001354H   SYMBOL    EDATA    FLOAT     temp_point
      00001358H   SYMBOL    EDATA    FLOAT     point_bit
      00000DB2H   SYMBOL    EDATA    ---       str
      00000DB6H   SYMBOL    EDATA    FLOAT     number
      00000DBAH   SYMBOL    EDATA    BYTE      point_bit
      00000DBBH   SYMBOL    EDATA    INT       data_int
      00000DBDH   SYMBOL    EDATA    INT       data_float
      00000DBFH   SYMBOL    EDATA    ---       data_temp
      00000DD7H   SYMBOL    EDATA    ---       data_temp_point
      00000DE9H   SYMBOL    EDATA    BYTE      dat_bit
      000013B6H   SYMBOL    EDATA    ---       str
      000013BAH   SYMBOL    EDATA    DWORD     str_len
      000013BEH   SYMBOL    EDATA    DWORD     result_data
      000013C2H   SYMBOL    EDATA    BYTE      temp
      000013C3H   SYMBOL    EDATA    BYTE      flag
      000010F1H   SYMBOL    EDATA    ---       str
      000010F5H   SYMBOL    EDATA    DWORD     number
      000010F9H   SYMBOL    EDATA    ---       hex_index
      00001109H   SYMBOL    EDATA    ---       data_temp
      00001115H   SYMBOL    EDATA    BYTE      dat_bit

      00FF8BC8H   BLOCK     CODE     ---       LVL=0
      000012DEH   SYMBOL    EDATA    DWORD     dat
      000012E2H   SYMBOL    EDATA    ---       p
L251 LINKER/LOCATER V4.66.93.0                                                        12/27/2024  03:02:31  PAGE 85


      000012E6H   SYMBOL    EDATA    BYTE      neg_type
      000012E7H   SYMBOL    EDATA    BYTE      radix
      00FF8BD4H   BLOCK     CODE     NEAR LAB  LVL=1
      000012E8H   SYMBOL    EDATA    LONG      neg_dat
      000012ECH   SYMBOL    EDATA    DWORD     pos_dat
      000012F0H   SYMBOL    EDATA    BYTE      temp_data
      000012F1H   SYMBOL    EDATA    BYTE      valid_num
      ---         BLOCKEND  ---      ---       LVL=1
      00FF8BC8H   LINE      CODE     ---       #639
      00FF8BD4H   LINE      CODE     ---       #640
      00FF8BD4H   LINE      CODE     ---       #643
      00FF8BD9H   LINE      CODE     ---       #644
      00FF8BDEH   LINE      CODE     ---       #646
      00FF8BE7H   LINE      CODE     ---       #648
      00FF8BEFH   LINE      CODE     ---       #649
      00FF8BF5H   LINE      CODE     ---       #651
      00FF8C07H   LINE      CODE     ---       #652
      00FF8C07H   LINE      CODE     ---       #653
      00FF8C07H   LINE      CODE     ---       #655
      00FF8C23H   LINE      CODE     ---       #656
      00FF8C36H   LINE      CODE     ---       #657
      00FF8C43H   LINE      CODE     ---       #659
      00FF8C4BH   LINE      CODE     ---       #661
      00FF8C4BH   LINE      CODE     ---       #662
      00FF8C4BH   LINE      CODE     ---       #663
      00FF8C55H   LINE      CODE     ---       #664
      00FF8C57H   LINE      CODE     ---       #665
      00FF8C5AH   LINE      CODE     ---       #668
      00FF8C62H   LINE      CODE     ---       #669
      00FF8C62H   LINE      CODE     ---       #671
      00FF8C77H   LINE      CODE     ---       #672
      00FF8C81H   LINE      CODE     ---       #674
      00FF8C8DH   LINE      CODE     ---       #675
      00FF8C8FH   LINE      CODE     ---       #678
      00FF8C9BH   LINE      CODE     ---       #679
      00FF8C9BH   LINE      CODE     ---       #681
      00FF8CA6H   LINE      CODE     ---       #683
      00FF8CB9H   LINE      CODE     ---       #684
      00FF8CC6H   LINE      CODE     ---       #686
      00FF8CCEH   LINE      CODE     ---       #688
      00FF8CCEH   LINE      CODE     ---       #689
      00FF8CCEH   LINE      CODE     ---       #690
      00FF8CD8H   LINE      CODE     ---       #691
      00FF8CDAH   LINE      CODE     ---       #692
      00FF8CDAH   LINE      CODE     ---       #693
      00FF8CDEH   LINE      CODE     ---       #694
      ---         BLOCKEND  ---      ---       LVL=0

      00FF9716H   BLOCK     CODE     ---       LVL=0
      00001409H   SYMBOL    EDATA    ---       d_buff
      0000140DH   SYMBOL    EDATA    DWORD     len
      00FF971EH   BLOCK     CODE     NEAR LAB  LVL=1
      00001411H   SYMBOL    EDATA    DWORD     i
      00001415H   SYMBOL    EDATA    CHAR      temp_data
      ---         BLOCKEND  ---      ---       LVL=1
      00FF9716H   LINE      CODE     ---       #704
      00FF971EH   LINE      CODE     ---       #705
      00FF971EH   LINE      CODE     ---       #708
      00FF9726H   LINE      CODE     ---       #710
      00FF9745H   LINE      CODE     ---       #711
      00FF976FH   LINE      CODE     ---       #712
      00FF9782H   LINE      CODE     ---       #713
      00FF97AAH   LINE      CODE     ---       #714
      ---         BLOCKEND  ---      ---       LVL=0

L251 LINKER/LOCATER V4.66.93.0                                                        12/27/2024  03:02:31  PAGE 86


      00FF4E2EH   BLOCK     CODE     ---       LVL=0
      00000CCBH   SYMBOL    EDATA    ---       buff
      00000CCFH   SYMBOL    EDATA    ---       format
      00FF4E36H   BLOCK     CODE     NEAR LAB  LVL=1
      00000CD3H   SYMBOL    EDATA    DWORD     buff_len
      00000CD7H   SYMBOL    EDATA    ---       arg
      00FF4E4BH   BLOCK     CODE     NEAR LAB  LVL=2
      00000CDBH   SYMBOL    EDATA    CHAR      ret
      00FF4F80H   BLOCK     CODE     NEAR LAB  LVL=3
      00000CDCH   SYMBOL    EDATA    CHAR      ch
      ---         BLOCKEND  ---      ---       LVL=3
      00FF4FBFH   BLOCK     CODE     NEAR LAB  LVL=3
      00000CDCH   SYMBOL    EDATA    ---       vstr
      00000CFDH   SYMBOL    EDATA    LONG      ival
      00000D01H   SYMBOL    EDATA    BYTE      vlen
      ---         BLOCKEND  ---      ---       LVL=3
      00FF5060H   BLOCK     CODE     NEAR LAB  LVL=3
      00000CDCH   SYMBOL    EDATA    ---       vstr
      00000CFDH   SYMBOL    EDATA    FLOAT     ival
      00000D01H   SYMBOL    EDATA    BYTE      vlen
      ---         BLOCKEND  ---      ---       LVL=3
      00FF5201H   BLOCK     CODE     NEAR LAB  LVL=3
      00000CDCH   SYMBOL    EDATA    ---       vstr
      00000CFDH   SYMBOL    EDATA    DWORD     ival
      00000D01H   SYMBOL    EDATA    BYTE      vlen
      ---         BLOCKEND  ---      ---       LVL=3
      00FF5279H   BLOCK     CODE     NEAR LAB  LVL=3
      00000CDCH   SYMBOL    EDATA    ---       vstr
      00000CFDH   SYMBOL    EDATA    DWORD     ival
      00000D01H   SYMBOL    EDATA    BYTE      vlen
      ---         BLOCKEND  ---      ---       LVL=3
      00FF52F1H   BLOCK     CODE     NEAR LAB  LVL=3
      00000CDCH   SYMBOL    EDATA    ---       vstr
      00000CFDH   SYMBOL    EDATA    DWORD     ival
      00000D01H   SYMBOL    EDATA    BYTE      vlen
      ---         BLOCKEND  ---      ---       LVL=3
      00FF5369H   BLOCK     CODE     NEAR LAB  LVL=3
      00000CDCH   SYMBOL    EDATA    ---       pc
      ---         BLOCKEND  ---      ---       LVL=3
      00FF53C3H   BLOCK     CODE     NEAR LAB  LVL=3
      00000CDCH   SYMBOL    EDATA    ---       vstr
      00000CFDH   SYMBOL    EDATA    DWORD     ival
      ---         BLOCKEND  ---      ---       LVL=3
      ---         BLOCKEND  ---      ---       LVL=2
      ---         BLOCKEND  ---      ---       LVL=1
      00FF4E2EH   LINE      CODE     ---       #725
      00FF4E36H   LINE      CODE     ---       #726
      00FF4E36H   LINE      CODE     ---       #727
      00FF4E3CH   LINE      CODE     ---       #729
      00FF4E48H   LINE      CODE     ---       #731
      00FF4E4BH   LINE      CODE     ---       #732
      00FF4E4BH   LINE      CODE     ---       #733
      00FF4E56H   LINE      CODE     ---       #734
      00FF4E62H   LINE      CODE     ---       #736
      00FF4F7DH   LINE      CODE     ---       #738
      00FF4F7DH   LINE      CODE     ---       #742
      00FF4F80H   LINE      CODE     ---       #745
      00FF4F80H   LINE      CODE     ---       #746
      00FF4F80H   LINE      CODE     ---       #747
      00FF4F99H   LINE      CODE     ---       #748
      00FF4FA4H   LINE      CODE     ---       #749
      00FF4FAEH   LINE      CODE     ---       #750
      00FF4FBCH   LINE      CODE     ---       #752
      00FF4FBFH   LINE      CODE     ---       #755
      00FF4FBFH   LINE      CODE     ---       #756
L251 LINKER/LOCATER V4.66.93.0                                                        12/27/2024  03:02:31  PAGE 87


      00FF4FBFH   LINE      CODE     ---       #757
      00FF4FBFH   LINE      CODE     ---       #759
      00FF4FD8H   LINE      CODE     ---       #760
      00FF4FEFH   LINE      CODE     ---       #762
      00FF4FF9H   LINE      CODE     ---       #764
      00FF500AH   LINE      CODE     ---       #765
      00FF5017H   LINE      CODE     ---       #766
      00FF5017H   LINE      CODE     ---       #767
      00FF5026H   LINE      CODE     ---       #768
      00FF503BH   LINE      CODE     ---       #769
      00FF504BH   LINE      CODE     ---       #770
      00FF505DH   LINE      CODE     ---       #773
      00FF5060H   LINE      CODE     ---       #775
      00FF5060H   LINE      CODE     ---       #776
      00FF5060H   LINE      CODE     ---       #777
      00FF5060H   LINE      CODE     ---       #779
      00FF5079H   LINE      CODE     ---       #780
      00FF5093H   LINE      CODE     ---       #782
      00FF509EH   LINE      CODE     ---       #784
      00FF50AFH   LINE      CODE     ---       #785
      00FF50BCH   LINE      CODE     ---       #786
      00FF50BCH   LINE      CODE     ---       #787
      00FF50CBH   LINE      CODE     ---       #788
      00FF50E0H   LINE      CODE     ---       #789
      00FF50F0H   LINE      CODE     ---       #790
      00FF5102H   LINE      CODE     ---       #792
      00FF5126H   LINE      CODE     ---       #793
      00FF512AH   LINE      CODE     ---       #795
      00FF5144H   LINE      CODE     ---       #796
      00FF5146H   LINE      CODE     ---       #799
      00FF516AH   LINE      CODE     ---       #800
      00FF5170H   LINE      CODE     ---       #801
      00FF5170H   LINE      CODE     ---       #803
      00FF5172H   LINE      CODE     ---       #805
      00FF5183H   LINE      CODE     ---       #806
      00FF5190H   LINE      CODE     ---       #807
      00FF519AH   LINE      CODE     ---       #809
      00FF51ABH   LINE      CODE     ---       #810
      00FF51B8H   LINE      CODE     ---       #812
      00FF51C7H   LINE      CODE     ---       #813
      00FF51DCH   LINE      CODE     ---       #814
      00FF51ECH   LINE      CODE     ---       #815
      00FF51FEH   LINE      CODE     ---       #817
      00FF5201H   LINE      CODE     ---       #820
      00FF5201H   LINE      CODE     ---       #821
      00FF5201H   LINE      CODE     ---       #823
      00FF521AH   LINE      CODE     ---       #824
      00FF5230H   LINE      CODE     ---       #826
      00FF523FH   LINE      CODE     ---       #827
      00FF5254H   LINE      CODE     ---       #828
      00FF5264H   LINE      CODE     ---       #829
      00FF5276H   LINE      CODE     ---       #830
      00FF5279H   LINE      CODE     ---       #832
      00FF5279H   LINE      CODE     ---       #833
      00FF5279H   LINE      CODE     ---       #835
      00FF5292H   LINE      CODE     ---       #836
      00FF52A8H   LINE      CODE     ---       #838
      00FF52B7H   LINE      CODE     ---       #839
      00FF52CCH   LINE      CODE     ---       #840
      00FF52DCH   LINE      CODE     ---       #841
      00FF52EEH   LINE      CODE     ---       #843
      00FF52F1H   LINE      CODE     ---       #845
      00FF52F1H   LINE      CODE     ---       #846
      00FF52F1H   LINE      CODE     ---       #847
      00FF52F1H   LINE      CODE     ---       #849
L251 LINKER/LOCATER V4.66.93.0                                                        12/27/2024  03:02:31  PAGE 88


      00FF530AH   LINE      CODE     ---       #850
      00FF5320H   LINE      CODE     ---       #852
      00FF532FH   LINE      CODE     ---       #853
      00FF5344H   LINE      CODE     ---       #854
      00FF5354H   LINE      CODE     ---       #855
      00FF5366H   LINE      CODE     ---       #856
      00FF5369H   LINE      CODE     ---       #859
      00FF5369H   LINE      CODE     ---       #860
      00FF5369H   LINE      CODE     ---       #861
      00FF5382H   LINE      CODE     ---       #862
      00FF5384H   LINE      CODE     ---       #864
      00FF5392H   LINE      CODE     ---       #865
      00FF539CH   LINE      CODE     ---       #866
      00FF53AAH   LINE      CODE     ---       #867
      00FF53B4H   LINE      CODE     ---       #868
      00FF53C0H   LINE      CODE     ---       #869
      00FF53C3H   LINE      CODE     ---       #871
      00FF53C3H   LINE      CODE     ---       #872
      00FF53C3H   LINE      CODE     ---       #874
      00FF53DCH   LINE      CODE     ---       #876
      00FF53EEH   LINE      CODE     ---       #878
      00FF53F9H   LINE      CODE     ---       #879
      00FF540CH   LINE      CODE     ---       #880
      00FF5418H   LINE      CODE     ---       #881
      00FF5426H   LINE      CODE     ---       #883
      00FF5428H   LINE      CODE     ---       #886
      00FF5428H   LINE      CODE     ---       #888
      00FF5431H   LINE      CODE     ---       #889
      00FF543BH   LINE      CODE     ---       #890
      00FF5449H   LINE      CODE     ---       #891
      00FF544BH   LINE      CODE     ---       #893
      00FF544BH   LINE      CODE     ---       #894
      00FF544BH   LINE      CODE     ---       #895
      00FF544BH   LINE      CODE     ---       #898
      00FF5459H   LINE      CODE     ---       #899
      00FF5463H   LINE      CODE     ---       #900
      00FF5471H   LINE      CODE     ---       #901
      00FF5471H   LINE      CODE     ---       #902
      00FF547BH   LINE      CODE     ---       #903
      00FF548AH   LINE      CODE     ---       #906
      00FF548EH   LINE      CODE     ---       #907
      ---         BLOCKEND  ---      ---       LVL=0

      ---         MODULE    ---      ---       SEEKFREE_ICM20602
      0000148FH   PUBLIC    EDATA    INT       icm20602_acc_x
      00001491H   PUBLIC    EDATA    INT       icm20602_acc_y
      00001493H   PUBLIC    EDATA    INT       icm20602_acc_z
      00001495H   PUBLIC    EDATA    INT       icm20602_gyro_x
      00001497H   PUBLIC    EDATA    INT       icm20602_gyro_y
      00001499H   PUBLIC    EDATA    INT       icm20602_gyro_z
      000000D0H   SFRSYM    DATA     BYTE      PSW
      0000009DH   SFRSYM    DATA     BYTE      IRCBAND
      00000097H   SFRSYM    DATA     BYTE      AUXR2
      000000EFH   SFRSYM    DATA     BYTE      AUXINTIF
      000000FDH   SFRSYM    DATA     BYTE      S4CON
      000000ACH   SFRSYM    DATA     BYTE      S3CON
      0000009AH   SFRSYM    DATA     BYTE      S2CON
      000000B7H   SFRSYM    DATA     BYTE      IPH
      000000CDH   SFRSYM    DATA     BYTE      SPSTAT
      000000DDH   SFRSYM    DATA     BYTE      T4T3M
      000000C1H   SFRSYM    DATA     BYTE      WDT_CONTR
      000000DFH   SFRSYM    DATA     BYTE      IP3
      000000F4H   SFRSYM    DATA     BYTE      USBCON
      000000B5H   SFRSYM    DATA     BYTE      IP2
      000000FFH   SFRSYM    DATA     BYTE      RSTCFG
L251 LINKER/LOCATER V4.66.93.0                                                        12/27/2024  03:02:31  PAGE 89


      000000C7H   SFRSYM    DATA     BYTE      IAP_CONTR
      000000F9H   SFRSYM    DATA     BYTE      LINICR
      0000008EH   SFRSYM    DATA     BYTE      AUXR
      000000AFH   SFRSYM    DATA     BYTE      IE2
      000000C0H.3 SFRSYM    DATA     BIT       P43
      000000C0H.2 SFRSYM    DATA     BIT       P42
      00000088H   SFRSYM    DATA     BYTE      TCON
      00000089H   SFRSYM    DATA     BYTE      TMOD
      000000C0H.1 SFRSYM    DATA     BIT       P41
      00000098H   SFRSYM    DATA     BYTE      SCON
      000000C0H.0 SFRSYM    DATA     BIT       P40
      000000F1H   SFRSYM    DATA     BYTE      CANICR
      00000087H   SFRSYM    DATA     BYTE      PCON
      000000BCH   SFRSYM    DATA     BYTE      ADC_CONTR
      000000E7H   SFRSYM    DATA     BYTE      CMPCR2
      000000E6H   SFRSYM    DATA     BYTE      CMPCR1
      000000DEH   SFRSYM    DATA     BYTE      ADCCFG
      000000B8H   SFRSYM    DATA     BYTE      IP
      0000008FH   SFRSYM    DATA     BYTE      INTCLKO
      000000EEH   SFRSYM    DATA     BYTE      IP3H
      000000B6H   SFRSYM    DATA     BYTE      IP2H
      000000A8H   SFRSYM    DATA     BYTE      IE
      000000BBH   SFRSYM    DATA     BYTE      P_SW3
      000000BAH   SFRSYM    DATA     BYTE      P_SW2
      000000A2H   SFRSYM    DATA     BYTE      P_SW1
      000000CEH   SFRSYM    DATA     BYTE      SPCTL
      000000F8H   SFRSYM    DATA     BYTE      P7
      000000E8H   SFRSYM    DATA     BYTE      P6
      000000C8H   SFRSYM    DATA     BYTE      P5
      000000C0H   SFRSYM    DATA     BYTE      P4
      000000B0H   SFRSYM    DATA     BYTE      P3
      000000A0H   SFRSYM    DATA     BYTE      P2
      00000090H   SFRSYM    DATA     BYTE      P1
      00000080H   SFRSYM    DATA     BYTE      P0
      000019B1H   SYMBOL    EDATA    BYTE      byte
      000019B2H   SYMBOL    EDATA    BYTE      i
      000019B3H   SYMBOL    EDATA    BYTE      cmd
      000019B4H   SYMBOL    EDATA    BYTE      val
      000018B1H   SYMBOL    EDATA    BYTE      cmd
      000018B2H   SYMBOL    EDATA    ---       val
      00001416H   SYMBOL    EDATA    BYTE      cmd
      00001417H   SYMBOL    EDATA    ---       val
      0000141BH   SYMBOL    EDATA    DWORD     num
      0000141FH   SYMBOL    EDATA    DWORD     i
      000019B5H   SYMBOL    EDATA    BYTE      reg
      000019B6H   SYMBOL    EDATA    BYTE      dat
      000019B7H   SYMBOL    EDATA    BYTE      reg
      000019B8H   SYMBOL    EDATA    BYTE      dat
      00001656H   SYMBOL    EDATA    BYTE      reg
      00001657H   SYMBOL    EDATA    ---       dat
      0000165BH   SYMBOL    EDATA    DWORD     len
      000018FBH   SYMBOL    EDATA    BYTE      dat
      000018FCH   SYMBOL    EDATA    BYTE      return_state
      000018FDH   SYMBOL    EDATA    WORD      timeout_count
      00001811H   SYMBOL    EDATA    ---       dat
      00001817H   SYMBOL    EDATA    ---       dat
      0000181DH   SYMBOL    EDATA    INT       acc_value
      0000181FH   SYMBOL    EDATA    FLOAT     acc_data
      00001823H   SYMBOL    EDATA    INT       gyro_value
      00001825H   SYMBOL    EDATA    FLOAT     gyro_data
      000018FFH   SYMBOL    EDATA    BYTE      val
      00001900H   SYMBOL    EDATA    BYTE      return_state
      00001901H   SYMBOL    EDATA    WORD      timeout_count

      ---         MODULE    ---      ---       SEEKFREE_IMU660RA
L251 LINKER/LOCATER V4.66.93.0                                                        12/27/2024  03:02:31  PAGE 90


      00FFA134H   PUBLIC    CODE     ---       imu660ra_get_gyro
      00FF95CEH   PUBLIC    CODE     ---       imu660ra_gyro_transition
      00FF9524H   PUBLIC    CODE     ---       imu660ra_init
      0000149BH   PUBLIC    EDATA    INT       imu660ra_acc_x
      0000149DH   PUBLIC    EDATA    INT       imu660ra_acc_y
      0000149FH   PUBLIC    EDATA    INT       imu660ra_acc_z
      000014A1H   PUBLIC    EDATA    INT       imu660ra_gyro_x
      000014A3H   PUBLIC    EDATA    INT       imu660ra_gyro_y
      000014A5H   PUBLIC    EDATA    INT       imu660ra_gyro_z
      000000D0H   SFRSYM    DATA     BYTE      PSW
      0000009DH   SFRSYM    DATA     BYTE      IRCBAND
      00000097H   SFRSYM    DATA     BYTE      AUXR2
      000000EFH   SFRSYM    DATA     BYTE      AUXINTIF
      000000FDH   SFRSYM    DATA     BYTE      S4CON
      000000ACH   SFRSYM    DATA     BYTE      S3CON
      0000009AH   SFRSYM    DATA     BYTE      S2CON
      000000B7H   SFRSYM    DATA     BYTE      IPH
      000000CDH   SFRSYM    DATA     BYTE      SPSTAT
      000000DDH   SFRSYM    DATA     BYTE      T4T3M
      000000C1H   SFRSYM    DATA     BYTE      WDT_CONTR
      000000DFH   SFRSYM    DATA     BYTE      IP3
      000000F4H   SFRSYM    DATA     BYTE      USBCON
      000000B5H   SFRSYM    DATA     BYTE      IP2
      000000FFH   SFRSYM    DATA     BYTE      RSTCFG
      000000C7H   SFRSYM    DATA     BYTE      IAP_CONTR
      000000F9H   SFRSYM    DATA     BYTE      LINICR
      0000008EH   SFRSYM    DATA     BYTE      AUXR
      000000AFH   SFRSYM    DATA     BYTE      IE2
      000000C0H.3 SFRSYM    DATA     BIT       P43
      000000C0H.2 SFRSYM    DATA     BIT       P42
      00000088H   SFRSYM    DATA     BYTE      TCON
      00000089H   SFRSYM    DATA     BYTE      TMOD
      000000C0H.1 SFRSYM    DATA     BIT       P41
      00000098H   SFRSYM    DATA     BYTE      SCON
      000000C0H.0 SFRSYM    DATA     BIT       P40
      000000F1H   SFRSYM    DATA     BYTE      CANICR
      00000087H   SFRSYM    DATA     BYTE      PCON
      000000BCH   SFRSYM    DATA     BYTE      ADC_CONTR
      000000E7H   SFRSYM    DATA     BYTE      CMPCR2
      000000E6H   SFRSYM    DATA     BYTE      CMPCR1
      000000DEH   SFRSYM    DATA     BYTE      ADCCFG
      000000B8H   SFRSYM    DATA     BYTE      IP
      0000008FH   SFRSYM    DATA     BYTE      INTCLKO
      000000EEH   SFRSYM    DATA     BYTE      IP3H
      000000B6H   SFRSYM    DATA     BYTE      IP2H
      000000A8H   SFRSYM    DATA     BYTE      IE
      000000BBH   SFRSYM    DATA     BYTE      P_SW3
      000000BAH   SFRSYM    DATA     BYTE      P_SW2
      000000A2H   SFRSYM    DATA     BYTE      P_SW1
      000000CEH   SFRSYM    DATA     BYTE      SPCTL
      000000F8H   SFRSYM    DATA     BYTE      P7
      000000E8H   SFRSYM    DATA     BYTE      P6
      000000C8H   SFRSYM    DATA     BYTE      P5
      000000C0H   SFRSYM    DATA     BYTE      P4
      000000B0H   SFRSYM    DATA     BYTE      P3
      000000A0H   SFRSYM    DATA     BYTE      P2
      00000090H   SFRSYM    DATA     BYTE      P1
      00000080H   SFRSYM    DATA     BYTE      P0
      00FFA486H   SYMBOL    CODE     ---       imu660ra_read_register
      00FFA4A8H   SYMBOL    CODE     ---       imu660ra_write_registers
      00FFA546H   SYMBOL    CODE     ---       imu660ra_write_register
      00FF9FDAH   SYMBOL    CODE     ---       imu660ra_simspi_wr_byte
      00FFA184H   SYMBOL    CODE     ---       imu660ra_self_check
      00FFA1CFH   SYMBOL    CODE     ---       imu660ra_simspi_r_reg_bytes
      00FFA328H   SYMBOL    CODE     ---       imu660ra_simspi_w_reg_bytes
L251 LINKER/LOCATER V4.66.93.0                                                        12/27/2024  03:02:31  PAGE 91


      00FF0066H   SYMBOL    CODE     ---       imu660ra_simspi_w_reg_byte
      00FFA418H   SYMBOL    CODE     ---       imu660ra_read_registers

      00FF9FDAH   BLOCK     CODE     ---       LVL=0
      000019B9H   SYMBOL    EDATA    BYTE      byte
      00FF9FDEH   BLOCK     CODE     NEAR LAB  LVL=1
      000019BAH   SYMBOL    EDATA    BYTE      i
      ---         BLOCKEND  ---      ---       LVL=1
      00FF9FDAH   LINE      CODE     ---       #310
      00FF9FDEH   LINE      CODE     ---       #311
      00FF9FDEH   LINE      CODE     ---       #314
      00FF9FE5H   LINE      CODE     ---       #316
      00FF9FF3H   LINE      CODE     ---       #317
      00FF9FFDH   LINE      CODE     ---       #318
      00FFA000H   LINE      CODE     ---       #319
      00FFA003H   LINE      CODE     ---       #320
      00FFA006H   LINE      CODE     ---       #321
      00FFA009H   LINE      CODE     ---       #323
      00FFA017H   LINE      CODE     ---       #324
      00FFA02EH   LINE      CODE     ---       #325
      00FFA032H   LINE      CODE     ---       #326
      ---         BLOCKEND  ---      ---       LVL=0

      00FF0066H   BLOCK     CODE     ---       LVL=0
      000019BBH   SYMBOL    EDATA    BYTE      cmd
      000019BCH   SYMBOL    EDATA    BYTE      val
      00FF0066H   LINE      CODE     ---       #334
      00FF006EH   LINE      CODE     ---       #336
      00FF0072H   LINE      CODE     ---       #337
      00FF0079H   LINE      CODE     ---       #338
      00FF0080H   LINE      CODE     ---       #339
      ---         BLOCKEND  ---      ---       LVL=0

      00FFA328H   BLOCK     CODE     ---       LVL=0
      0000165FH   SYMBOL    EDATA    BYTE      cmd
      00001660H   SYMBOL    EDATA    ---       dat_addr
      00001664H   SYMBOL    EDATA    DWORD     len
      00FFA328H   LINE      CODE     ---       #349
      00FFA334H   LINE      CODE     ---       #351
      00FFA338H   LINE      CODE     ---       #352
      00FFA33FH   LINE      CODE     ---       #353
      00FFA341H   LINE      CODE     ---       #355
      00FFA351H   LINE      CODE     ---       #356
      00FFA365H   LINE      CODE     ---       #357
      ---         BLOCKEND  ---      ---       LVL=0

      00FFA1CFH   BLOCK     CODE     ---       LVL=0
      00001668H   SYMBOL    EDATA    BYTE      cmd
      00001669H   SYMBOL    EDATA    ---       val
      0000166DH   SYMBOL    EDATA    DWORD     num
      00FFA1CFH   LINE      CODE     ---       #383
      00FFA1DBH   LINE      CODE     ---       #385
      00FFA1E7H   LINE      CODE     ---       #386
      00FFA1EEH   LINE      CODE     ---       #388
      00FFA1F0H   LINE      CODE     ---       #390
      00FFA205H   LINE      CODE     ---       #391
      00FFA219H   LINE      CODE     ---       #392
      ---         BLOCKEND  ---      ---       LVL=0

      00FFA546H   BLOCK     CODE     ---       LVL=0
      000019BDH   SYMBOL    EDATA    BYTE      reg
      000019BEH   SYMBOL    EDATA    BYTE      dat
      00FFA546H   LINE      CODE     ---       #403
      00FFA54EH   LINE      CODE     ---       #405
      00FFA551H   LINE      CODE     ---       #406
L251 LINKER/LOCATER V4.66.93.0                                                        12/27/2024  03:02:31  PAGE 92


      00FFA55CH   LINE      CODE     ---       #407
      00FFA55FH   LINE      CODE     ---       #408
      ---         BLOCKEND  ---      ---       LVL=0

      00FFA4A8H   BLOCK     CODE     ---       LVL=0
      00001671H   SYMBOL    EDATA    BYTE      reg
      00001672H   SYMBOL    EDATA    ---       dat
      00001676H   SYMBOL    EDATA    DWORD     len
      00FFA4A8H   LINE      CODE     ---       #418
      00FFA4B4H   LINE      CODE     ---       #420
      00FFA4B7H   LINE      CODE     ---       #422
      00FFA4C6H   LINE      CODE     ---       #423
      00FFA4C9H   LINE      CODE     ---       #424
      ---         BLOCKEND  ---      ---       LVL=0

      00FFA486H   BLOCK     CODE     ---       LVL=0
      00001964H   SYMBOL    EDATA    BYTE      reg
      00FFA48AH   BLOCK     CODE     NEAR LAB  LVL=1
      00001965H   SYMBOL    EDATA    ---       dat
      ---         BLOCKEND  ---      ---       LVL=1
      00FFA486H   LINE      CODE     ---       #433
      00FFA48AH   LINE      CODE     ---       #434
      00FFA48AH   LINE      CODE     ---       #436
      00FFA48DH   LINE      CODE     ---       #437
      00FFA4A0H   LINE      CODE     ---       #438
      00FFA4A3H   LINE      CODE     ---       #439
      00FFA4A7H   LINE      CODE     ---       #440
      ---         BLOCKEND  ---      ---       LVL=0

      00FFA418H   BLOCK     CODE     ---       LVL=0
      0000167AH   SYMBOL    EDATA    BYTE      reg
      0000167BH   SYMBOL    EDATA    ---       dat
      0000167FH   SYMBOL    EDATA    DWORD     len
      00FFA418H   LINE      CODE     ---       #451
      00FFA424H   LINE      CODE     ---       #453
      00FFA427H   LINE      CODE     ---       #454
      00FFA43AH   LINE      CODE     ---       #455
      00FFA43DH   LINE      CODE     ---       #456
      ---         BLOCKEND  ---      ---       LVL=0

      00FFA184H   BLOCK     CODE     ---       LVL=0
      00001903H   SYMBOL    EDATA    BYTE      dat
      00001904H   SYMBOL    EDATA    BYTE      return_state
      00001905H   SYMBOL    EDATA    WORD      timeout_count
      00FFA184H   LINE      CODE     ---       #466
      00FFA184H   LINE      CODE     ---       #467
      00FFA184H   LINE      CODE     ---       #468
      00FFA18EH   LINE      CODE     ---       #469
      00FFA194H   LINE      CODE     ---       #470
      00FFA194H   LINE      CODE     ---       #472
      00FFA1AAH   LINE      CODE     ---       #474
      00FFA1B0H   LINE      CODE     ---       #475
      00FFA1B2H   LINE      CODE     ---       #476
      00FFA1B2H   LINE      CODE     ---       #477
      00FFA1BAH   LINE      CODE     ---       #478
      00FFA1C1H   LINE      CODE     ---       #479
      00FFA1CAH   LINE      CODE     ---       #480
      00FFA1CEH   LINE      CODE     ---       #481
      ---         BLOCKEND  ---      ---       LVL=0
      000017B1H   SYMBOL    EDATA    ---       dat

      00FFA134H   BLOCK     CODE     ---       LVL=0
      000017B8H   SYMBOL    EDATA    ---       dat
      00FFA134H   LINE      CODE     ---       #516
      00FFA134H   LINE      CODE     ---       #517
L251 LINKER/LOCATER V4.66.93.0                                                        12/27/2024  03:02:31  PAGE 93


      00FFA134H   LINE      CODE     ---       #527
      00FFA141H   LINE      CODE     ---       #528
      00FFA157H   LINE      CODE     ---       #529
      00FFA16DH   LINE      CODE     ---       #530
      00FFA183H   LINE      CODE     ---       #532
      ---         BLOCKEND  ---      ---       LVL=0
      00001829H   SYMBOL    EDATA    INT       acc_value
      0000182BH   SYMBOL    EDATA    FLOAT     acc_dat

      00FF95CEH   BLOCK     CODE     ---       LVL=0
      0000182FH   SYMBOL    EDATA    INT       gyro_value
      00FF95D2H   BLOCK     CODE     NEAR LAB  LVL=1
      00001831H   SYMBOL    EDATA    FLOAT     gyro_dat
      ---         BLOCKEND  ---      ---       LVL=1
      00FF95CEH   LINE      CODE     ---       #562
      00FF95D2H   LINE      CODE     ---       #563
      00FF95D2H   LINE      CODE     ---       #564
      00FF95D8H   LINE      CODE     ---       #565
      00FF95F1H   LINE      CODE     ---       #567
      00FF960BH   LINE      CODE     ---       #568
      00FF9625H   LINE      CODE     ---       #569
      00FF963FH   LINE      CODE     ---       #570
      00FF9659H   LINE      CODE     ---       #571
      00FF9671H   LINE      CODE     ---       #572
      00FF9671H   LINE      CODE     ---       #573
      00FF9671H   LINE      CODE     ---       #574
      00FF9675H   LINE      CODE     ---       #575
      ---         BLOCKEND  ---      ---       LVL=0

      00FF9524H   BLOCK     CODE     ---       LVL=0
      000019FEH   SYMBOL    EDATA    BYTE      return_state
      00FF9524H   LINE      CODE     ---       #584
      00FF9524H   LINE      CODE     ---       #585
      00FF9524H   LINE      CODE     ---       #586
      00FF9529H   LINE      CODE     ---       #588
      00FF9530H   LINE      CODE     ---       #599
      00FF9530H   LINE      CODE     ---       #600
      00FF9538H   LINE      CODE     ---       #605
      00FF9538H   LINE      CODE     ---       #607
      00FF9543H   LINE      CODE     ---       #608
      00FF954AH   LINE      CODE     ---       #609
      00FF954CH   LINE      CODE     ---       #610
      00FF9552H   LINE      CODE     ---       #612
      00FF9552H   LINE      CODE     ---       #614
      00FF9559H   LINE      CODE     ---       #615
      00FF9560H   LINE      CODE     ---       #616
      00FF9567H   LINE      CODE     ---       #617
      00FF9578H   LINE      CODE     ---       #618
      00FF9580H   LINE      CODE     ---       #619
      00FF9587H   LINE      CODE     ---       #620
      00FF9591H   LINE      CODE     ---       #627
      00FF959CH   LINE      CODE     ---       #630
      00FF95A2H   LINE      CODE     ---       #632
      00FF95A2H   LINE      CODE     ---       #633
      00FF95AAH   LINE      CODE     ---       #634
      00FF95B2H   LINE      CODE     ---       #635
      00FF95BAH   LINE      CODE     ---       #637
      00FF95C2H   LINE      CODE     ---       #644
      00FF95C9H   LINE      CODE     ---       #654
      00FF95C9H   LINE      CODE     ---       #658
      00FF95CDH   LINE      CODE     ---       #659
      ---         BLOCKEND  ---      ---       LVL=0

      ---         MODULE    ---      ---       SEEKFREE_IMU963RA
      00001304H   PUBLIC    EDATA    INT       imu963ra_acc_x
L251 LINKER/LOCATER V4.66.93.0                                                        12/27/2024  03:02:31  PAGE 94


      00001306H   PUBLIC    EDATA    INT       imu963ra_acc_y
      00001308H   PUBLIC    EDATA    INT       imu963ra_acc_z
      0000130AH   PUBLIC    EDATA    INT       imu963ra_mag_x
      0000130CH   PUBLIC    EDATA    INT       imu963ra_mag_y
      0000130EH   PUBLIC    EDATA    INT       imu963ra_mag_z
      00001310H   PUBLIC    EDATA    INT       imu963ra_gyro_x
      00001312H   PUBLIC    EDATA    INT       imu963ra_gyro_y
      00001314H   PUBLIC    EDATA    INT       imu963ra_gyro_z
      000000D0H   SFRSYM    DATA     BYTE      PSW
      0000009DH   SFRSYM    DATA     BYTE      IRCBAND
      00000097H   SFRSYM    DATA     BYTE      AUXR2
      000000EFH   SFRSYM    DATA     BYTE      AUXINTIF
      000000FDH   SFRSYM    DATA     BYTE      S4CON
      000000ACH   SFRSYM    DATA     BYTE      S3CON
      0000009AH   SFRSYM    DATA     BYTE      S2CON
      000000B7H   SFRSYM    DATA     BYTE      IPH
      000000CDH   SFRSYM    DATA     BYTE      SPSTAT
      000000DDH   SFRSYM    DATA     BYTE      T4T3M
      000000C1H   SFRSYM    DATA     BYTE      WDT_CONTR
      000000DFH   SFRSYM    DATA     BYTE      IP3
      000000F4H   SFRSYM    DATA     BYTE      USBCON
      000000B5H   SFRSYM    DATA     BYTE      IP2
      000000FFH   SFRSYM    DATA     BYTE      RSTCFG
      000000C7H   SFRSYM    DATA     BYTE      IAP_CONTR
      000000F9H   SFRSYM    DATA     BYTE      LINICR
      0000008EH   SFRSYM    DATA     BYTE      AUXR
      000000AFH   SFRSYM    DATA     BYTE      IE2
      000000C0H.3 SFRSYM    DATA     BIT       P43
      000000C0H.2 SFRSYM    DATA     BIT       P42
      00000088H   SFRSYM    DATA     BYTE      TCON
      00000089H   SFRSYM    DATA     BYTE      TMOD
      000000C0H.1 SFRSYM    DATA     BIT       P41
      00000098H   SFRSYM    DATA     BYTE      SCON
      000000C0H.0 SFRSYM    DATA     BIT       P40
      000000F1H   SFRSYM    DATA     BYTE      CANICR
      00000087H   SFRSYM    DATA     BYTE      PCON
      000000BCH   SFRSYM    DATA     BYTE      ADC_CONTR
      000000E7H   SFRSYM    DATA     BYTE      CMPCR2
      000000E6H   SFRSYM    DATA     BYTE      CMPCR1
      000000DEH   SFRSYM    DATA     BYTE      ADCCFG
      000000B8H   SFRSYM    DATA     BYTE      IP
      0000008FH   SFRSYM    DATA     BYTE      INTCLKO
      000000EEH   SFRSYM    DATA     BYTE      IP3H
      000000B6H   SFRSYM    DATA     BYTE      IP2H
      000000A8H   SFRSYM    DATA     BYTE      IE
      000000BBH   SFRSYM    DATA     BYTE      P_SW3
      000000BAH   SFRSYM    DATA     BYTE      P_SW2
      000000A2H   SFRSYM    DATA     BYTE      P_SW1
      000000CEH   SFRSYM    DATA     BYTE      SPCTL
      000000F8H   SFRSYM    DATA     BYTE      P7
      000000E8H   SFRSYM    DATA     BYTE      P6
      000000C8H   SFRSYM    DATA     BYTE      P5
      000000C0H   SFRSYM    DATA     BYTE      P4
      000000B0H   SFRSYM    DATA     BYTE      P3
      000000A0H   SFRSYM    DATA     BYTE      P2
      00000090H   SFRSYM    DATA     BYTE      P1
      00000080H   SFRSYM    DATA     BYTE      P0
      000019BFH   SYMBOL    EDATA    BYTE      byte
      000019C0H   SYMBOL    EDATA    BYTE      i
      000019C1H   SYMBOL    EDATA    BYTE      cmd
      000019C2H   SYMBOL    EDATA    BYTE      val
      000018B6H   SYMBOL    EDATA    BYTE      cmd
      000018B7H   SYMBOL    EDATA    ---       val
      00001683H   SYMBOL    EDATA    BYTE      cmd
      00001684H   SYMBOL    EDATA    ---       val
L251 LINKER/LOCATER V4.66.93.0                                                        12/27/2024  03:02:31  PAGE 95


      00001688H   SYMBOL    EDATA    DWORD     num
      000019C3H   SYMBOL    EDATA    BYTE      reg
      000019C4H   SYMBOL    EDATA    BYTE      dat
      000019C5H   SYMBOL    EDATA    BYTE      reg
      000019C6H   SYMBOL    EDATA    BYTE      dat
      0000168CH   SYMBOL    EDATA    BYTE      reg
      0000168DH   SYMBOL    EDATA    ---       dat
      00001691H   SYMBOL    EDATA    DWORD     len
      00001835H   SYMBOL    EDATA    BYTE      addr
      00001836H   SYMBOL    EDATA    BYTE      reg
      00001837H   SYMBOL    EDATA    BYTE      dat
      00001838H   SYMBOL    EDATA    BYTE      return_state
      00001839H   SYMBOL    EDATA    WORD      timeout_count
      00001907H   SYMBOL    EDATA    BYTE      addr
      00001908H   SYMBOL    EDATA    BYTE      reg
      00001909H   SYMBOL    EDATA    WORD      timeout_count
      000019C7H   SYMBOL    EDATA    BYTE      addr
      000019C8H   SYMBOL    EDATA    BYTE      reg
      0000190BH   SYMBOL    EDATA    BYTE      return_state
      0000190CH   SYMBOL    EDATA    BYTE      dat
      0000190DH   SYMBOL    EDATA    WORD      timeout_count
      0000190FH   SYMBOL    EDATA    BYTE      return_state
      00001910H   SYMBOL    EDATA    BYTE      dat
      00001911H   SYMBOL    EDATA    WORD      timeout_count
      0000183BH   SYMBOL    EDATA    ---       dat
      00001841H   SYMBOL    EDATA    ---       dat
      000017BFH   SYMBOL    EDATA    BYTE      temp_status
      000017C0H   SYMBOL    EDATA    ---       dat
      00001847H   SYMBOL    EDATA    INT       acc_value
      00001849H   SYMBOL    EDATA    FLOAT     acc_dat
      0000184DH   SYMBOL    EDATA    INT       gyro_value
      0000184FH   SYMBOL    EDATA    FLOAT     gyro_dat
      00001853H   SYMBOL    EDATA    INT       mag_value
      00001855H   SYMBOL    EDATA    FLOAT     mag_dat
      000019FFH   SYMBOL    EDATA    BYTE      return_state

      ---         MODULE    ---      ---       SEEKFREE_IPS114_SPI
      00000E7EH   PUBLIC    EDATA    BYTE      ?ips114_showfloat_simspi?BYTE
      00000EAEH   PUBLIC    EDATA    BYTE      ?ips114_showfloat?BYTE
      000000D0H   SFRSYM    DATA     BYTE      PSW
      0000009DH   SFRSYM    DATA     BYTE      IRCBAND
      00000097H   SFRSYM    DATA     BYTE      AUXR2
      000000EFH   SFRSYM    DATA     BYTE      AUXINTIF
      000000FDH   SFRSYM    DATA     BYTE      S4CON
      000000ACH   SFRSYM    DATA     BYTE      S3CON
      0000009AH   SFRSYM    DATA     BYTE      S2CON
      000000B7H   SFRSYM    DATA     BYTE      IPH
      000000CDH   SFRSYM    DATA     BYTE      SPSTAT
      000000DDH   SFRSYM    DATA     BYTE      T4T3M
      000000C1H   SFRSYM    DATA     BYTE      WDT_CONTR
      000000DFH   SFRSYM    DATA     BYTE      IP3
      000000F4H   SFRSYM    DATA     BYTE      USBCON
      000000B5H   SFRSYM    DATA     BYTE      IP2
      000000FFH   SFRSYM    DATA     BYTE      RSTCFG
      000000C7H   SFRSYM    DATA     BYTE      IAP_CONTR
      000000F9H   SFRSYM    DATA     BYTE      LINICR
      0000008EH   SFRSYM    DATA     BYTE      AUXR
      000000AFH   SFRSYM    DATA     BYTE      IE2
      000000A0H.7 SFRSYM    DATA     BIT       P27
      000000A0H.5 SFRSYM    DATA     BIT       P25
      00000088H   SFRSYM    DATA     BYTE      TCON
      00000089H   SFRSYM    DATA     BYTE      TMOD
      000000A0H.3 SFRSYM    DATA     BIT       P23
      00000098H   SFRSYM    DATA     BYTE      SCON
      000000A0H.2 SFRSYM    DATA     BIT       P22
L251 LINKER/LOCATER V4.66.93.0                                                        12/27/2024  03:02:31  PAGE 96


      000000A0H.1 SFRSYM    DATA     BIT       P21
      000000A0H.0 SFRSYM    DATA     BIT       P20
      000000F1H   SFRSYM    DATA     BYTE      CANICR
      00000087H   SFRSYM    DATA     BYTE      PCON
      000000BCH   SFRSYM    DATA     BYTE      ADC_CONTR
      000000E7H   SFRSYM    DATA     BYTE      CMPCR2
      000000E6H   SFRSYM    DATA     BYTE      CMPCR1
      000000DEH   SFRSYM    DATA     BYTE      ADCCFG
      000000B8H   SFRSYM    DATA     BYTE      IP
      0000008FH   SFRSYM    DATA     BYTE      INTCLKO
      000000EEH   SFRSYM    DATA     BYTE      IP3H
      000000B6H   SFRSYM    DATA     BYTE      IP2H
      000000A8H   SFRSYM    DATA     BYTE      IE
      000000BBH   SFRSYM    DATA     BYTE      P_SW3
      000000BAH   SFRSYM    DATA     BYTE      P_SW2
      000000A2H   SFRSYM    DATA     BYTE      P_SW1
      000000CEH   SFRSYM    DATA     BYTE      SPCTL
      000000F8H   SFRSYM    DATA     BYTE      P7
      000000E8H   SFRSYM    DATA     BYTE      P6
      000000C8H   SFRSYM    DATA     BYTE      P5
      000000C0H   SFRSYM    DATA     BYTE      P4
      000000B0H   SFRSYM    DATA     BYTE      P3
      000000A0H   SFRSYM    DATA     BYTE      P2
      00000090H   SFRSYM    DATA     BYTE      P1
      00000080H   SFRSYM    DATA     BYTE      P0
      000019C9H   SYMBOL    EDATA    BYTE      dat
      000019CAH   SYMBOL    EDATA    BYTE      i
      000019CBH   SYMBOL    EDATA    BYTE      dat
      000019CCH   SYMBOL    EDATA    BYTE      i
      00001967H   SYMBOL    EDATA    WORD      dat
      00001969H   SYMBOL    EDATA    BYTE      i
      0000175BH   SYMBOL    EDATA    WORD      x1
      0000175DH   SYMBOL    EDATA    WORD      y1
      0000175FH   SYMBOL    EDATA    WORD      x2
      00001761H   SYMBOL    EDATA    WORD      y2
      00001859H   SYMBOL    EDATA    WORD      color
      0000185BH   SYMBOL    EDATA    WORD      i
      0000185DH   SYMBOL    EDATA    WORD      j
      0000185FH   SYMBOL    EDATA    WORD      x
      00001861H   SYMBOL    EDATA    WORD      y
      00001863H   SYMBOL    EDATA    WORD      color
      00001763H   SYMBOL    EDATA    WORD      x
      00001765H   SYMBOL    EDATA    WORD      y
      00001767H   SYMBOL    EDATA    CHAR      dat
      00001768H   SYMBOL    EDATA    BYTE      i
      00001769H   SYMBOL    EDATA    BYTE      j
      0000176AH   SYMBOL    EDATA    BYTE      temp
      000015D2H   SYMBOL    EDATA    WORD      x
      000015D4H   SYMBOL    EDATA    WORD      y
      000015D6H   SYMBOL    EDATA    ---       dat
      000015DAH   SYMBOL    EDATA    WORD      j
      00001695H   SYMBOL    EDATA    WORD      x
      00001697H   SYMBOL    EDATA    WORD      y
      00001699H   SYMBOL    EDATA    CHAR      dat
      0000169AH   SYMBOL    EDATA    ---       a
      0000169DH   SYMBOL    EDATA    BYTE      i
      0000169EH   SYMBOL    EDATA    WORD      x
      000016A0H   SYMBOL    EDATA    WORD      y
      000016A2H   SYMBOL    EDATA    BYTE      dat
      000016A3H   SYMBOL    EDATA    ---       a
      000016A6H   SYMBOL    EDATA    BYTE      i
      000014A7H   SYMBOL    EDATA    WORD      x
      000014A9H   SYMBOL    EDATA    WORD      y
      000014ABH   SYMBOL    EDATA    INT       dat
      000014ADH   SYMBOL    EDATA    ---       a
L251 LINKER/LOCATER V4.66.93.0                                                        12/27/2024  03:02:31  PAGE 97


      000014B2H   SYMBOL    EDATA    BYTE      i
      000014B3H   SYMBOL    EDATA    WORD      x
      000014B5H   SYMBOL    EDATA    WORD      y
      000014B7H   SYMBOL    EDATA    WORD      dat
      000014B9H   SYMBOL    EDATA    ---       a
      000014BEH   SYMBOL    EDATA    BYTE      i
      00000FC5H   SYMBOL    EDATA    WORD      x
      00000FC7H   SYMBOL    EDATA    WORD      y
      00000FC9H   SYMBOL    EDATA    LONG      dat
      00000FCDH   SYMBOL    EDATA    BYTE      num
      00000FCEH   SYMBOL    EDATA    ---       buff
      00000FF0H   SYMBOL    EDATA    BYTE      length
      00000E7EH   SYMBOL    EDATA    WORD      x
      00000E80H   SYMBOL    EDATA    WORD      y
      00000E82H   SYMBOL    EDATA    FLOAT     dat
      00000E86H   SYMBOL    EDATA    BYTE      num
      00000E87H   SYMBOL    EDATA    BYTE      pointnum
      00000E88H   SYMBOL    EDATA    BYTE      length
      00000E89H   SYMBOL    EDATA    ---       buff
      00000EABH   SYMBOL    EDATA    CHAR      start
      00000EACH   SYMBOL    EDATA    CHAR      end
      00000EADH   SYMBOL    EDATA    CHAR      point
      00001A00H   SYMBOL    EDATA    BYTE      dat
      00001A01H   SYMBOL    EDATA    BYTE      dat
      00001913H   SYMBOL    EDATA    WORD      dat
      00001915H   SYMBOL    EDATA    ---       dat1
      0000176BH   SYMBOL    EDATA    WORD      x1
      0000176DH   SYMBOL    EDATA    WORD      y1
      0000176FH   SYMBOL    EDATA    WORD      x2
      00001771H   SYMBOL    EDATA    WORD      y2
      00001865H   SYMBOL    EDATA    WORD      color
      00001867H   SYMBOL    EDATA    WORD      i
      00001869H   SYMBOL    EDATA    WORD      j
      0000186BH   SYMBOL    EDATA    WORD      x
      0000186DH   SYMBOL    EDATA    WORD      y
      0000186FH   SYMBOL    EDATA    WORD      color
      00001773H   SYMBOL    EDATA    WORD      x
      00001775H   SYMBOL    EDATA    WORD      y
      00001777H   SYMBOL    EDATA    CHAR      dat
      00001778H   SYMBOL    EDATA    BYTE      i
      00001779H   SYMBOL    EDATA    BYTE      j
      0000177AH   SYMBOL    EDATA    BYTE      temp
      000015DCH   SYMBOL    EDATA    WORD      x
      000015DEH   SYMBOL    EDATA    WORD      y
      000015E0H   SYMBOL    EDATA    ---       dat
      000015E4H   SYMBOL    EDATA    WORD      j
      000016A7H   SYMBOL    EDATA    WORD      x
      000016A9H   SYMBOL    EDATA    WORD      y
      000016ABH   SYMBOL    EDATA    CHAR      dat
      000016ACH   SYMBOL    EDATA    ---       a
      000016AFH   SYMBOL    EDATA    BYTE      i
      000016B0H   SYMBOL    EDATA    WORD      x
      000016B2H   SYMBOL    EDATA    WORD      y
      000016B4H   SYMBOL    EDATA    BYTE      dat
      000016B5H   SYMBOL    EDATA    ---       a
      000016B8H   SYMBOL    EDATA    BYTE      i
      000014BFH   SYMBOL    EDATA    WORD      x
      000014C1H   SYMBOL    EDATA    WORD      y
      000014C3H   SYMBOL    EDATA    INT       dat
      000014C5H   SYMBOL    EDATA    ---       a
      000014CAH   SYMBOL    EDATA    BYTE      i
      000014CBH   SYMBOL    EDATA    WORD      x
      000014CDH   SYMBOL    EDATA    WORD      y
      000014CFH   SYMBOL    EDATA    WORD      dat
      000014D1H   SYMBOL    EDATA    ---       a
L251 LINKER/LOCATER V4.66.93.0                                                        12/27/2024  03:02:31  PAGE 98


      000014D6H   SYMBOL    EDATA    BYTE      i
      00000FF1H   SYMBOL    EDATA    WORD      x
      00000FF3H   SYMBOL    EDATA    WORD      y
      00000FF5H   SYMBOL    EDATA    LONG      dat
      00000FF9H   SYMBOL    EDATA    BYTE      num
      00000FFAH   SYMBOL    EDATA    ---       buff
      0000101CH   SYMBOL    EDATA    BYTE      length
      00000EAEH   SYMBOL    EDATA    WORD      x
      00000EB0H   SYMBOL    EDATA    WORD      y
      00000EB2H   SYMBOL    EDATA    FLOAT     dat
      00000EB6H   SYMBOL    EDATA    BYTE      num
      00000EB7H   SYMBOL    EDATA    BYTE      pointnum
      00000EB8H   SYMBOL    EDATA    BYTE      length
      00000EB9H   SYMBOL    EDATA    ---       buff
      00000EDBH   SYMBOL    EDATA    CHAR      start
      00000EDCH   SYMBOL    EDATA    CHAR      end
      00000EDDH   SYMBOL    EDATA    CHAR      point

      ---         MODULE    ---      ---       SEEKFREE_IPS200_SPI
      0000128BH   PUBLIC    EDATA    BYTE      ?ips200_draw_line?BYTE
      00001116H   PUBLIC    EDATA    BYTE      ?ips200_show_float?BYTE
      00001139H   PUBLIC    EDATA    BYTE      ?ips200_show_wave?BYTE
      00001242H   PUBLIC    EDATA    BYTE      ?ips200_show_chinese?BYTE
      000000D0H   SFRSYM    DATA     BYTE      PSW
      0000009DH   SFRSYM    DATA     BYTE      IRCBAND
      00000097H   SFRSYM    DATA     BYTE      AUXR2
      000000EFH   SFRSYM    DATA     BYTE      AUXINTIF
      000000FDH   SFRSYM    DATA     BYTE      S4CON
      000000ACH   SFRSYM    DATA     BYTE      S3CON
      0000009AH   SFRSYM    DATA     BYTE      S2CON
      000000B7H   SFRSYM    DATA     BYTE      IPH
      000000CDH   SFRSYM    DATA     BYTE      SPSTAT
      000000DDH   SFRSYM    DATA     BYTE      T4T3M
      000000C1H   SFRSYM    DATA     BYTE      WDT_CONTR
      000000DFH   SFRSYM    DATA     BYTE      IP3
      000000F4H   SFRSYM    DATA     BYTE      USBCON
      000000B5H   SFRSYM    DATA     BYTE      IP2
      000000FFH   SFRSYM    DATA     BYTE      RSTCFG
      000000C7H   SFRSYM    DATA     BYTE      IAP_CONTR
      000000F9H   SFRSYM    DATA     BYTE      LINICR
      0000008EH   SFRSYM    DATA     BYTE      AUXR
      000000AFH   SFRSYM    DATA     BYTE      IE2
      000000A0H.7 SFRSYM    DATA     BIT       P27
      00000088H   SFRSYM    DATA     BYTE      TCON
      00000089H   SFRSYM    DATA     BYTE      TMOD
      00000098H   SFRSYM    DATA     BYTE      SCON
      000000A0H.2 SFRSYM    DATA     BIT       P22
      000000A0H.1 SFRSYM    DATA     BIT       P21
      000000A0H.0 SFRSYM    DATA     BIT       P20
      000000F1H   SFRSYM    DATA     BYTE      CANICR
      00000087H   SFRSYM    DATA     BYTE      PCON
      000000BCH   SFRSYM    DATA     BYTE      ADC_CONTR
      000000E7H   SFRSYM    DATA     BYTE      CMPCR2
      000000E6H   SFRSYM    DATA     BYTE      CMPCR1
      000000DEH   SFRSYM    DATA     BYTE      ADCCFG
      000000B8H   SFRSYM    DATA     BYTE      IP
      0000008FH   SFRSYM    DATA     BYTE      INTCLKO
      000000EEH   SFRSYM    DATA     BYTE      IP3H
      000000B6H   SFRSYM    DATA     BYTE      IP2H
      000000A8H   SFRSYM    DATA     BYTE      IE
      000000BBH   SFRSYM    DATA     BYTE      P_SW3
      000000BAH   SFRSYM    DATA     BYTE      P_SW2
      000000A2H   SFRSYM    DATA     BYTE      P_SW1
      000000CEH   SFRSYM    DATA     BYTE      SPCTL
      000000F8H   SFRSYM    DATA     BYTE      P7
L251 LINKER/LOCATER V4.66.93.0                                                        12/27/2024  03:02:31  PAGE 99


      000000E8H   SFRSYM    DATA     BYTE      P6
      000000C8H   SFRSYM    DATA     BYTE      P5
      000000C0H   SFRSYM    DATA     BYTE      P4
      000000B0H   SFRSYM    DATA     BYTE      P3
      000000A0H   SFRSYM    DATA     BYTE      P2
      00000090H   SFRSYM    DATA     BYTE      P1
      00000080H   SFRSYM    DATA     BYTE      P0
      000013C4H   SYMBOL    EDATA    WORD      ips200_pencolor
      000013C6H   SYMBOL    EDATA    WORD      ips200_bgcolor
      000013C8H   SYMBOL    EDATA    INT       ips200_display_font
      000013CAH   SYMBOL    EDATA    INT       ips200_display_dir
      000013CCH   SYMBOL    EDATA    WORD      ips200_x_max
      000013CEH   SYMBOL    EDATA    INT       ips200_display_type
      000013D0H   SYMBOL    EDATA    WORD      ips200_y_max
      00001A02H   SYMBOL    EDATA    BYTE      dat
      00001917H   SYMBOL    EDATA    WORD      dat
      00001919H   SYMBOL    EDATA    ---       dat1
      00001A03H   SYMBOL    EDATA    BYTE      command
      00001A04H   SYMBOL    EDATA    BYTE      dat
      000019CDH   SYMBOL    EDATA    WORD      dat
      0000177BH   SYMBOL    EDATA    WORD      x1
      0000177DH   SYMBOL    EDATA    WORD      y1
      0000177FH   SYMBOL    EDATA    WORD      x2
      00001781H   SYMBOL    EDATA    WORD      y2
      0000191BH   SYMBOL    EDATA    WORD      i
      0000191DH   SYMBOL    EDATA    WORD      j
      00001871H   SYMBOL    EDATA    WORD      color
      00001873H   SYMBOL    EDATA    WORD      i
      00001875H   SYMBOL    EDATA    WORD      j
      000019CFH   SYMBOL    EDATA    INT       dir
      000019D1H   SYMBOL    EDATA    INT       font
      0000191FH   SYMBOL    EDATA    WORD      pen
      00001921H   SYMBOL    EDATA    WORD      bgcolor
      00001877H   SYMBOL    EDATA    WORD      x
      00001879H   SYMBOL    EDATA    WORD      y
      0000187BH   SYMBOL    EDATA    WORD      color
      0000128BH   SYMBOL    EDATA    WORD      x_start
      0000128DH   SYMBOL    EDATA    WORD      y_start
      0000128FH   SYMBOL    EDATA    WORD      x_end
      00001291H   SYMBOL    EDATA    WORD      y_end
      00001293H   SYMBOL    EDATA    WORD      color
      00001295H   SYMBOL    EDATA    INT       x_dir
      00001297H   SYMBOL    EDATA    INT       y_dir
      00001299H   SYMBOL    EDATA    FLOAT     temp_rate
      0000129DH   SYMBOL    EDATA    FLOAT     temp_b
      000016B9H   SYMBOL    EDATA    WORD      x
      000016BBH   SYMBOL    EDATA    WORD      y
      000016BDH   SYMBOL    EDATA    CHAR      dat
      000016BEH   SYMBOL    EDATA    BYTE      i
      000016BFH   SYMBOL    EDATA    BYTE      j
      000016C0H   SYMBOL    EDATA    BYTE      temp_top
      000016C1H   SYMBOL    EDATA    BYTE      temp_bottom
      000015E6H   SYMBOL    EDATA    WORD      x
      000015E8H   SYMBOL    EDATA    WORD      y
      000015EAH   SYMBOL    EDATA    ---       dat
      000015EEH   SYMBOL    EDATA    WORD      j
      000011D3H   SYMBOL    EDATA    WORD      x
      000011D5H   SYMBOL    EDATA    WORD      y
      000011D7H   SYMBOL    EDATA    LONG      dat
      000011DBH   SYMBOL    EDATA    BYTE      num
      000011DCH   SYMBOL    EDATA    LONG      dat_temp
      000011E0H   SYMBOL    EDATA    LONG      offset
      000011E4H   SYMBOL    EDATA    ---       data_buffer
      000011F0H   SYMBOL    EDATA    WORD      x
      000011F2H   SYMBOL    EDATA    WORD      y
L251 LINKER/LOCATER V4.66.93.0                                                        12/27/2024  03:02:31  PAGE 100


      000011F4H   SYMBOL    EDATA    DWORD     dat
      000011F8H   SYMBOL    EDATA    BYTE      num
      000011F9H   SYMBOL    EDATA    DWORD     dat_temp
      000011FDH   SYMBOL    EDATA    LONG      offset
      00001201H   SYMBOL    EDATA    ---       data_buffer
      00001116H   SYMBOL    EDATA    WORD      x
      00001118H   SYMBOL    EDATA    WORD      y
      0000111AH   SYMBOL    EDATA    FLOAT     dat
      0000111EH   SYMBOL    EDATA    BYTE      num
      0000111FH   SYMBOL    EDATA    BYTE      pointnum
      00001120H   SYMBOL    EDATA    FLOAT     dat_temp
      00001124H   SYMBOL    EDATA    FLOAT     offset
      00001128H   SYMBOL    EDATA    ---       data_buffer
      00001139H   SYMBOL    EDATA    WORD      x
      0000113BH   SYMBOL    EDATA    WORD      y
      0000113DH   SYMBOL    EDATA    ---       wave
      00001141H   SYMBOL    EDATA    WORD      width
      00001143H   SYMBOL    EDATA    WORD      value_max
      00001145H   SYMBOL    EDATA    WORD      dis_width
      00001147H   SYMBOL    EDATA    WORD      dis_value_max
      00001149H   SYMBOL    EDATA    DWORD     i
      0000114DH   SYMBOL    EDATA    DWORD     j
      00001151H   SYMBOL    EDATA    DWORD     width_index
      00001155H   SYMBOL    EDATA    DWORD     value_max_index
      00001242H   SYMBOL    EDATA    WORD      x
      00001244H   SYMBOL    EDATA    WORD      y
      00001246H   SYMBOL    EDATA    BYTE      size
      00001247H   SYMBOL    EDATA    ---       chinese_buffer
      0000124BH   SYMBOL    EDATA    BYTE      number
      0000124CH   SYMBOL    EDATA    WORD      color
      0000124EH   SYMBOL    EDATA    INT       i
      00001250H   SYMBOL    EDATA    INT       j
      00001252H   SYMBOL    EDATA    INT       k
      00001254H   SYMBOL    EDATA    BYTE      temp
      00001255H   SYMBOL    EDATA    BYTE      temp1
      00001256H   SYMBOL    EDATA    BYTE      temp2
      00001257H   SYMBOL    EDATA    ---       p_data

      ---         MODULE    ---      ---       SEEKFREE_MPU6050
      000014D7H   PUBLIC    EDATA    INT       mpu6050_acc_x
      000014D9H   PUBLIC    EDATA    INT       mpu6050_acc_y
      000014DBH   PUBLIC    EDATA    INT       mpu6050_acc_z
      000014DDH   PUBLIC    EDATA    INT       mpu6050_gyro_x
      000014DFH   PUBLIC    EDATA    INT       mpu6050_gyro_y
      000014E1H   PUBLIC    EDATA    INT       mpu6050_gyro_z
      000000D0H   SFRSYM    DATA     BYTE      PSW
      0000009DH   SFRSYM    DATA     BYTE      IRCBAND
      00000097H   SFRSYM    DATA     BYTE      AUXR2
      000000EFH   SFRSYM    DATA     BYTE      AUXINTIF
      000000FDH   SFRSYM    DATA     BYTE      S4CON
      000000ACH   SFRSYM    DATA     BYTE      S3CON
      0000009AH   SFRSYM    DATA     BYTE      S2CON
      000000B7H   SFRSYM    DATA     BYTE      IPH
      000000CDH   SFRSYM    DATA     BYTE      SPSTAT
      000000DDH   SFRSYM    DATA     BYTE      T4T3M
      000000C1H   SFRSYM    DATA     BYTE      WDT_CONTR
      000000DFH   SFRSYM    DATA     BYTE      IP3
      000000F4H   SFRSYM    DATA     BYTE      USBCON
      000000B5H   SFRSYM    DATA     BYTE      IP2
      000000FFH   SFRSYM    DATA     BYTE      RSTCFG
      000000C7H   SFRSYM    DATA     BYTE      IAP_CONTR
      000000F9H   SFRSYM    DATA     BYTE      LINICR
      0000008EH   SFRSYM    DATA     BYTE      AUXR
      000000AFH   SFRSYM    DATA     BYTE      IE2
      00000088H   SFRSYM    DATA     BYTE      TCON
L251 LINKER/LOCATER V4.66.93.0                                                        12/27/2024  03:02:31  PAGE 101


      00000089H   SFRSYM    DATA     BYTE      TMOD
      000000C0H.1 SFRSYM    DATA     BIT       P41
      00000098H   SFRSYM    DATA     BYTE      SCON
      000000C0H.0 SFRSYM    DATA     BIT       P40
      000000F1H   SFRSYM    DATA     BYTE      CANICR
      00000087H   SFRSYM    DATA     BYTE      PCON
      000000BCH   SFRSYM    DATA     BYTE      ADC_CONTR
      000000E7H   SFRSYM    DATA     BYTE      CMPCR2
      000000E6H   SFRSYM    DATA     BYTE      CMPCR1
      000000DEH   SFRSYM    DATA     BYTE      ADCCFG
      000000B8H   SFRSYM    DATA     BYTE      IP
      0000008FH   SFRSYM    DATA     BYTE      INTCLKO
      000000EEH   SFRSYM    DATA     BYTE      IP3H
      000000B6H   SFRSYM    DATA     BYTE      IP2H
      000000A8H   SFRSYM    DATA     BYTE      IE
      000000BBH   SFRSYM    DATA     BYTE      P_SW3
      000000BAH   SFRSYM    DATA     BYTE      P_SW2
      000000A2H   SFRSYM    DATA     BYTE      P_SW1
      000000CEH   SFRSYM    DATA     BYTE      SPCTL
      000000F8H   SFRSYM    DATA     BYTE      P7
      000000E8H   SFRSYM    DATA     BYTE      P6
      000000C8H   SFRSYM    DATA     BYTE      P5
      000000C0H   SFRSYM    DATA     BYTE      P4
      000000B0H   SFRSYM    DATA     BYTE      P3
      000000A0H   SFRSYM    DATA     BYTE      P2
      00000090H   SFRSYM    DATA     BYTE      P1
      00000080H   SFRSYM    DATA     BYTE      P0
      000019D3H   SYMBOL    EDATA    WORD      j
      00001A05H   SYMBOL    EDATA    BYTE      ack_dat
      000019D5H   SYMBOL    EDATA    BYTE      c
      000019D6H   SYMBOL    EDATA    BYTE      i
      0000196AH   SYMBOL    EDATA    BYTE      ack_x
      0000196BH   SYMBOL    EDATA    BYTE      i
      0000196CH   SYMBOL    EDATA    BYTE      c
      0000196DH   SYMBOL    EDATA    BYTE      dev_add
      0000196EH   SYMBOL    EDATA    BYTE      reg
      0000196FH   SYMBOL    EDATA    BYTE      dat
      00001970H   SYMBOL    EDATA    BYTE      dev_add
      00001971H   SYMBOL    EDATA    BYTE      reg
      00001972H   SYMBOL    EDATA    BYTE      dat
      000017C6H   SYMBOL    EDATA    BYTE      dev_add
      000017C7H   SYMBOL    EDATA    BYTE      reg
      000017C8H   SYMBOL    EDATA    ---       dat_add
      000017CCH   SYMBOL    EDATA    BYTE      num
      0000187DH   SYMBOL    EDATA    ---       dat
      00001883H   SYMBOL    EDATA    ---       dat

      ---         MODULE    ---      ---       SEEKFREE_OLED
      00000EDEH   PUBLIC    EDATA    BYTE      ?oled_printf_float?BYTE
      00000F0EH   PUBLIC    EDATA    BYTE      ?oled_printf_float_spi?BYTE
      000000D0H   SFRSYM    DATA     BYTE      PSW
      0000009DH   SFRSYM    DATA     BYTE      IRCBAND
      00000097H   SFRSYM    DATA     BYTE      AUXR2
      000000EFH   SFRSYM    DATA     BYTE      AUXINTIF
      000000FDH   SFRSYM    DATA     BYTE      S4CON
      000000ACH   SFRSYM    DATA     BYTE      S3CON
      0000009AH   SFRSYM    DATA     BYTE      S2CON
      000000B7H   SFRSYM    DATA     BYTE      IPH
      000000CDH   SFRSYM    DATA     BYTE      SPSTAT
      000000DDH   SFRSYM    DATA     BYTE      T4T3M
      000000C1H   SFRSYM    DATA     BYTE      WDT_CONTR
      000000DFH   SFRSYM    DATA     BYTE      IP3
      000000F4H   SFRSYM    DATA     BYTE      USBCON
      000000B5H   SFRSYM    DATA     BYTE      IP2
      000000FFH   SFRSYM    DATA     BYTE      RSTCFG
L251 LINKER/LOCATER V4.66.93.0                                                        12/27/2024  03:02:31  PAGE 102


      000000C7H   SFRSYM    DATA     BYTE      IAP_CONTR
      000000F9H   SFRSYM    DATA     BYTE      LINICR
      0000008EH   SFRSYM    DATA     BYTE      AUXR
      000000AFH   SFRSYM    DATA     BYTE      IE2
      000000A0H.5 SFRSYM    DATA     BIT       P25
      00000088H   SFRSYM    DATA     BYTE      TCON
      00000089H   SFRSYM    DATA     BYTE      TMOD
      000000A0H.3 SFRSYM    DATA     BIT       P23
      00000098H   SFRSYM    DATA     BYTE      SCON
      000000A0H.2 SFRSYM    DATA     BIT       P22
      000000A0H.1 SFRSYM    DATA     BIT       P21
      000000A0H.0 SFRSYM    DATA     BIT       P20
      000000F1H   SFRSYM    DATA     BYTE      CANICR
      00000087H   SFRSYM    DATA     BYTE      PCON
      000000BCH   SFRSYM    DATA     BYTE      ADC_CONTR
      000000E7H   SFRSYM    DATA     BYTE      CMPCR2
      000000E6H   SFRSYM    DATA     BYTE      CMPCR1
      000000DEH   SFRSYM    DATA     BYTE      ADCCFG
      000000B8H   SFRSYM    DATA     BYTE      IP
      0000008FH   SFRSYM    DATA     BYTE      INTCLKO
      000000EEH   SFRSYM    DATA     BYTE      IP3H
      000000B6H   SFRSYM    DATA     BYTE      IP2H
      000000A8H   SFRSYM    DATA     BYTE      IE
      000000BBH   SFRSYM    DATA     BYTE      P_SW3
      000000BAH   SFRSYM    DATA     BYTE      P_SW2
      000000A2H   SFRSYM    DATA     BYTE      P_SW1
      000000CEH   SFRSYM    DATA     BYTE      SPCTL
      000000F8H   SFRSYM    DATA     BYTE      P7
      000000E8H   SFRSYM    DATA     BYTE      P6
      000000C8H   SFRSYM    DATA     BYTE      P5
      000000C0H   SFRSYM    DATA     BYTE      P4
      000000B0H   SFRSYM    DATA     BYTE      P3
      000000A0H   SFRSYM    DATA     BYTE      P2
      00000090H   SFRSYM    DATA     BYTE      P1
      00000080H   SFRSYM    DATA     BYTE      P0
      000019D7H   SYMBOL    EDATA    BYTE      dat
      000019D8H   SYMBOL    EDATA    BYTE      i
      000019D9H   SYMBOL    EDATA    BYTE      cmd
      000019DAH   SYMBOL    EDATA    BYTE      i
      00001783H   SYMBOL    EDATA    WORD      hex
      00001785H   SYMBOL    EDATA    ---       Print
      00001789H   SYMBOL    EDATA    BYTE      hexcheck
      0000178AH   SYMBOL    EDATA    BYTE      TEMP
      000019DBH   SYMBOL    EDATA    BYTE      x
      000019DCH   SYMBOL    EDATA    BYTE      y
      00001973H   SYMBOL    EDATA    BYTE      bmp_data
      00001974H   SYMBOL    EDATA    BYTE      y
      00001975H   SYMBOL    EDATA    BYTE      x
      00001976H   SYMBOL    EDATA    BYTE      x
      00001977H   SYMBOL    EDATA    BYTE      y
      00001978H   SYMBOL    EDATA    BYTE      data1
      000019DDH   SYMBOL    EDATA    BYTE      x
      000019DEH   SYMBOL    EDATA    BYTE      y
      000016C2H   SYMBOL    EDATA    BYTE      x
      000016C3H   SYMBOL    EDATA    BYTE      y
      000016C4H   SYMBOL    EDATA    ---       ch
      000016C8H   SYMBOL    EDATA    BYTE      c
      000016C9H   SYMBOL    EDATA    BYTE      i
      000016CAH   SYMBOL    EDATA    BYTE      j
      000016CBH   SYMBOL    EDATA    BYTE      x
      000016CCH   SYMBOL    EDATA    BYTE      y
      000016CDH   SYMBOL    EDATA    ---       ch
      000016D1H   SYMBOL    EDATA    BYTE      c
      000016D2H   SYMBOL    EDATA    BYTE      i
      000016D3H   SYMBOL    EDATA    BYTE      j
L251 LINKER/LOCATER V4.66.93.0                                                        12/27/2024  03:02:31  PAGE 103


      00001537H   SYMBOL    EDATA    BYTE      x
      00001538H   SYMBOL    EDATA    BYTE      y
      00001539H   SYMBOL    EDATA    WORD      num
      0000153BH   SYMBOL    EDATA    ---       ch
      00001542H   SYMBOL    EDATA    BYTE      x
      00001543H   SYMBOL    EDATA    BYTE      y
      00001544H   SYMBOL    EDATA    INT       num
      00001546H   SYMBOL    EDATA    ---       ch
      0000101DH   SYMBOL    EDATA    WORD      x
      0000101FH   SYMBOL    EDATA    WORD      y
      00001021H   SYMBOL    EDATA    LONG      dat
      00001025H   SYMBOL    EDATA    BYTE      num
      00001026H   SYMBOL    EDATA    ---       buff
      00001048H   SYMBOL    EDATA    BYTE      length
      00000EDEH   SYMBOL    EDATA    WORD      x
      00000EE0H   SYMBOL    EDATA    WORD      y
      00000EE2H   SYMBOL    EDATA    FLOAT     dat
      00000EE6H   SYMBOL    EDATA    BYTE      num
      00000EE7H   SYMBOL    EDATA    BYTE      pointnum
      00000EE8H   SYMBOL    EDATA    BYTE      length
      00000EE9H   SYMBOL    EDATA    ---       buff
      00000F0BH   SYMBOL    EDATA    CHAR      start
      00000F0CH   SYMBOL    EDATA    CHAR      end
      00000F0DH   SYMBOL    EDATA    CHAR      point
      00001316H   SYMBOL    EDATA    WORD      high
      00001318H   SYMBOL    EDATA    WORD      width
      0000131AH   SYMBOL    EDATA    ---       p
      0000131EH   SYMBOL    EDATA    BYTE      value
      0000131FH   SYMBOL    EDATA    WORD      i
      00001321H   SYMBOL    EDATA    WORD      j
      00001323H   SYMBOL    EDATA    WORD      temp
      00001325H   SYMBOL    EDATA    WORD      temp1
      00001327H   SYMBOL    EDATA    BYTE      dat
      000013D2H   SYMBOL    EDATA    BYTE      x
      000013D3H   SYMBOL    EDATA    BYTE      y
      000013D4H   SYMBOL    EDATA    BYTE      size
      000013D5H   SYMBOL    EDATA    ---       p
      000013D9H   SYMBOL    EDATA    BYTE      len
      000013DAH   SYMBOL    EDATA    WORD      i
      000013DCH   SYMBOL    EDATA    WORD      j
      000013DEH   SYMBOL    EDATA    WORD      k
      00001A06H   SYMBOL    EDATA    BYTE      dat
      00001A07H   SYMBOL    EDATA    BYTE      cmd
      0000178BH   SYMBOL    EDATA    WORD      hex
      0000178DH   SYMBOL    EDATA    ---       Print
      00001791H   SYMBOL    EDATA    BYTE      hexcheck
      00001792H   SYMBOL    EDATA    BYTE      TEMP
      000019DFH   SYMBOL    EDATA    BYTE      x
      000019E0H   SYMBOL    EDATA    BYTE      y
      00001979H   SYMBOL    EDATA    BYTE      bmp_data
      0000197AH   SYMBOL    EDATA    BYTE      y
      0000197BH   SYMBOL    EDATA    BYTE      x
      0000197CH   SYMBOL    EDATA    BYTE      x
      0000197DH   SYMBOL    EDATA    BYTE      y
      0000197EH   SYMBOL    EDATA    BYTE      data1
      000019E1H   SYMBOL    EDATA    BYTE      x
      000019E2H   SYMBOL    EDATA    BYTE      y
      000016D4H   SYMBOL    EDATA    BYTE      x
      000016D5H   SYMBOL    EDATA    BYTE      y
      000016D6H   SYMBOL    EDATA    ---       ch
      000016DAH   SYMBOL    EDATA    BYTE      c
      000016DBH   SYMBOL    EDATA    BYTE      i
      000016DCH   SYMBOL    EDATA    BYTE      j
      000016DDH   SYMBOL    EDATA    BYTE      x
      000016DEH   SYMBOL    EDATA    BYTE      y
L251 LINKER/LOCATER V4.66.93.0                                                        12/27/2024  03:02:31  PAGE 104


      000016DFH   SYMBOL    EDATA    ---       ch
      000016E3H   SYMBOL    EDATA    BYTE      c
      000016E4H   SYMBOL    EDATA    BYTE      i
      000016E5H   SYMBOL    EDATA    BYTE      j
      0000154DH   SYMBOL    EDATA    BYTE      x
      0000154EH   SYMBOL    EDATA    BYTE      y
      0000154FH   SYMBOL    EDATA    WORD      num
      00001551H   SYMBOL    EDATA    ---       ch
      00001558H   SYMBOL    EDATA    BYTE      x
      00001559H   SYMBOL    EDATA    BYTE      y
      0000155AH   SYMBOL    EDATA    INT       num
      0000155CH   SYMBOL    EDATA    ---       ch
      00001049H   SYMBOL    EDATA    WORD      x
      0000104BH   SYMBOL    EDATA    WORD      y
      0000104DH   SYMBOL    EDATA    LONG      dat
      00001051H   SYMBOL    EDATA    BYTE      num
      00001052H   SYMBOL    EDATA    ---       buff
      00001074H   SYMBOL    EDATA    BYTE      length
      00000F0EH   SYMBOL    EDATA    WORD      x
      00000F10H   SYMBOL    EDATA    WORD      y
      00000F12H   SYMBOL    EDATA    FLOAT     dat
      00000F16H   SYMBOL    EDATA    BYTE      num
      00000F17H   SYMBOL    EDATA    BYTE      pointnum
      00000F18H   SYMBOL    EDATA    BYTE      length
      00000F19H   SYMBOL    EDATA    ---       buff
      00000F3BH   SYMBOL    EDATA    CHAR      start
      00000F3CH   SYMBOL    EDATA    CHAR      end
      00000F3DH   SYMBOL    EDATA    CHAR      point
      00001328H   SYMBOL    EDATA    WORD      high
      0000132AH   SYMBOL    EDATA    WORD      width
      0000132CH   SYMBOL    EDATA    ---       p
      00001330H   SYMBOL    EDATA    BYTE      value
      00001331H   SYMBOL    EDATA    WORD      i
      00001333H   SYMBOL    EDATA    WORD      j
      00001335H   SYMBOL    EDATA    WORD      temp
      00001337H   SYMBOL    EDATA    WORD      temp1
      00001339H   SYMBOL    EDATA    BYTE      dat
      000013E0H   SYMBOL    EDATA    BYTE      x
      000013E1H   SYMBOL    EDATA    BYTE      y
      000013E2H   SYMBOL    EDATA    BYTE      size
      000013E3H   SYMBOL    EDATA    ---       p
      000013E7H   SYMBOL    EDATA    BYTE      len
      000013E8H   SYMBOL    EDATA    WORD      i
      000013EAH   SYMBOL    EDATA    WORD      j
      000013ECH   SYMBOL    EDATA    WORD      k

      ---         MODULE    ---      ---       SEEKFREE_TSL1401
      00FFA4CAH   PUBLIC    CODE     ---       ccd_init
      00FF9A48H   PUBLIC    CODE     ---       ccd_collect
      00000667H   PUBLIC    EDATA    BYTE      tsl1401_finish_flag
      00000668H   PUBLIC    EDATA    ---       ccd_data_ch1
      00000768H   PUBLIC    EDATA    ---       ccd_data_ch2
      000000D0H   SFRSYM    DATA     BYTE      PSW
      0000009DH   SFRSYM    DATA     BYTE      IRCBAND
      00000097H   SFRSYM    DATA     BYTE      AUXR2
      000000EFH   SFRSYM    DATA     BYTE      AUXINTIF
      000000FDH   SFRSYM    DATA     BYTE      S4CON
      000000ACH   SFRSYM    DATA     BYTE      S3CON
      0000009AH   SFRSYM    DATA     BYTE      S2CON
      000000B7H   SFRSYM    DATA     BYTE      IPH
      000000CDH   SFRSYM    DATA     BYTE      SPSTAT
      000000DDH   SFRSYM    DATA     BYTE      T4T3M
      000000C1H   SFRSYM    DATA     BYTE      WDT_CONTR
      000000DFH   SFRSYM    DATA     BYTE      IP3
      000000F4H   SFRSYM    DATA     BYTE      USBCON
L251 LINKER/LOCATER V4.66.93.0                                                        12/27/2024  03:02:31  PAGE 105


      000000B5H   SFRSYM    DATA     BYTE      IP2
      000000FFH   SFRSYM    DATA     BYTE      RSTCFG
      000000C7H   SFRSYM    DATA     BYTE      IAP_CONTR
      000000F9H   SFRSYM    DATA     BYTE      LINICR
      0000008EH   SFRSYM    DATA     BYTE      AUXR
      000000AFH   SFRSYM    DATA     BYTE      IE2
      00000080H.7 SFRSYM    DATA     BIT       P07
      00000088H   SFRSYM    DATA     BYTE      TCON
      00000089H   SFRSYM    DATA     BYTE      TMOD
      00000098H   SFRSYM    DATA     BYTE      SCON
      00000080H.2 SFRSYM    DATA     BIT       P02
      000000F1H   SFRSYM    DATA     BYTE      CANICR
      00000087H   SFRSYM    DATA     BYTE      PCON
      000000BCH   SFRSYM    DATA     BYTE      ADC_CONTR
      000000E7H   SFRSYM    DATA     BYTE      CMPCR2
      000000E6H   SFRSYM    DATA     BYTE      CMPCR1
      000000DEH   SFRSYM    DATA     BYTE      ADCCFG
      000000B8H   SFRSYM    DATA     BYTE      IP
      0000008FH   SFRSYM    DATA     BYTE      INTCLKO
      000000EEH   SFRSYM    DATA     BYTE      IP3H
      000000B6H   SFRSYM    DATA     BYTE      IP2H
      000000A8H   SFRSYM    DATA     BYTE      IE
      000000BBH   SFRSYM    DATA     BYTE      P_SW3
      000000BAH   SFRSYM    DATA     BYTE      P_SW2
      000000A2H   SFRSYM    DATA     BYTE      P_SW1
      000000CEH   SFRSYM    DATA     BYTE      SPCTL
      000000F8H   SFRSYM    DATA     BYTE      P7
      000000E8H   SFRSYM    DATA     BYTE      P6
      000000C8H   SFRSYM    DATA     BYTE      P5
      000000C0H   SFRSYM    DATA     BYTE      P4
      000000B0H   SFRSYM    DATA     BYTE      P3
      000000A0H   SFRSYM    DATA     BYTE      P2
      00000090H   SFRSYM    DATA     BYTE      P1
      00000080H   SFRSYM    DATA     BYTE      P0

      00FFA4CAH   BLOCK     CODE     ---       LVL=0
      00FFA4CAH   LINE      CODE     ---       #48
      00FFA4CAH   LINE      CODE     ---       #50
      00FFA4D5H   LINE      CODE     ---       #51
      00FFA4E0H   LINE      CODE     ---       #52
      00FFA4EBH   LINE      CODE     ---       #53
      ---         BLOCKEND  ---      ---       LVL=0
      000017CDH   SYMBOL    EDATA    INT       uart_n
      000017CFH   SYMBOL    EDATA    ---       dat
      000017D3H   SYMBOL    EDATA    BYTE      i

      00FF9A48H   BLOCK     CODE     ---       LVL=0
      00001A08H   SYMBOL    EDATA    BYTE      i
      00FF9A48H   LINE      CODE     ---       #86
      00FF9A48H   LINE      CODE     ---       #87
      00FF9A48H   LINE      CODE     ---       #88
      00FF9A4DH   LINE      CODE     ---       #90
      00FF9A50H   LINE      CODE     ---       #91
      00FF9A53H   LINE      CODE     ---       #92
      00FF9A56H   LINE      CODE     ---       #93
      00FF9A59H   LINE      CODE     ---       #94
      00FF9A5CH   LINE      CODE     ---       #95
      00FF9A5FH   LINE      CODE     ---       #97
      00FF9A66H   LINE      CODE     ---       #99
      00FF9A69H   LINE      CODE     ---       #100
      00FF9A88H   LINE      CODE     ---       #101
      00FF9AA7H   LINE      CODE     ---       #102
      00FF9AAAH   LINE      CODE     ---       #103
      00FF9AC1H   LINE      CODE     ---       #104
      00FF9AC7H   LINE      CODE     ---       #105
L251 LINKER/LOCATER V4.66.93.0                                                        12/27/2024  03:02:31  PAGE 106


      ---         BLOCKEND  ---      ---       LVL=0

      ---         MODULE    ---      ---       SEEKFREE_VIRSCO
      000015F0H   PUBLIC    EDATA    ---       virtual_scope_data
      000013EEH   PUBLIC    EDATA    BYTE      ?data_conversion?BYTE
      000000D0H   SFRSYM    DATA     BYTE      PSW
      0000009DH   SFRSYM    DATA     BYTE      IRCBAND
      00000097H   SFRSYM    DATA     BYTE      AUXR2
      000000EFH   SFRSYM    DATA     BYTE      AUXINTIF
      000000FDH   SFRSYM    DATA     BYTE      S4CON
      000000ACH   SFRSYM    DATA     BYTE      S3CON
      0000009AH   SFRSYM    DATA     BYTE      S2CON
      000000B7H   SFRSYM    DATA     BYTE      IPH
      000000CDH   SFRSYM    DATA     BYTE      SPSTAT
      000000DDH   SFRSYM    DATA     BYTE      T4T3M
      000000C1H   SFRSYM    DATA     BYTE      WDT_CONTR
      000000DFH   SFRSYM    DATA     BYTE      IP3
      000000F4H   SFRSYM    DATA     BYTE      USBCON
      000000B5H   SFRSYM    DATA     BYTE      IP2
      000000FFH   SFRSYM    DATA     BYTE      RSTCFG
      000000C7H   SFRSYM    DATA     BYTE      IAP_CONTR
      000000F9H   SFRSYM    DATA     BYTE      LINICR
      0000008EH   SFRSYM    DATA     BYTE      AUXR
      000000AFH   SFRSYM    DATA     BYTE      IE2
      00000088H   SFRSYM    DATA     BYTE      TCON
      00000089H   SFRSYM    DATA     BYTE      TMOD
      00000098H   SFRSYM    DATA     BYTE      SCON
      000000F1H   SFRSYM    DATA     BYTE      CANICR
      00000087H   SFRSYM    DATA     BYTE      PCON
      000000BCH   SFRSYM    DATA     BYTE      ADC_CONTR
      000000E7H   SFRSYM    DATA     BYTE      CMPCR2
      000000E6H   SFRSYM    DATA     BYTE      CMPCR1
      000000DEH   SFRSYM    DATA     BYTE      ADCCFG
      000000B8H   SFRSYM    DATA     BYTE      IP
      0000008FH   SFRSYM    DATA     BYTE      INTCLKO
      000000EEH   SFRSYM    DATA     BYTE      IP3H
      000000B6H   SFRSYM    DATA     BYTE      IP2H
      000000A8H   SFRSYM    DATA     BYTE      IE
      000000BBH   SFRSYM    DATA     BYTE      P_SW3
      000000BAH   SFRSYM    DATA     BYTE      P_SW2
      000000A2H   SFRSYM    DATA     BYTE      P_SW1
      000000CEH   SFRSYM    DATA     BYTE      SPCTL
      000000F8H   SFRSYM    DATA     BYTE      P7
      000000E8H   SFRSYM    DATA     BYTE      P6
      000000C8H   SFRSYM    DATA     BYTE      P5
      000000C0H   SFRSYM    DATA     BYTE      P4
      000000B0H   SFRSYM    DATA     BYTE      P3
      000000A0H   SFRSYM    DATA     BYTE      P2
      00000090H   SFRSYM    DATA     BYTE      P1
      00000080H   SFRSYM    DATA     BYTE      P0
      000016E6H   SYMBOL    EDATA    ---       Buf
      000016EAH   SYMBOL    EDATA    BYTE      CRC_CNT
      000016EBH   SYMBOL    EDATA    WORD      CRC_Temp
      000016EDH   SYMBOL    EDATA    BYTE      i
      000016EEH   SYMBOL    EDATA    BYTE      j
      000013EEH   SYMBOL    EDATA    INT       data1
      000013F0H   SYMBOL    EDATA    INT       data2
      000013F2H   SYMBOL    EDATA    INT       data3
      000013F4H   SYMBOL    EDATA    INT       data4
      000013F6H   SYMBOL    EDATA    ---       dat
      000013FAH   SYMBOL    EDATA    WORD      CRC16

      ---         MODULE    ---      ---       SEEKFREE_WIRELESS
      00FFA560H   PUBLIC    CODE     ---       wireless_uart_callback
      00FFA263H   PUBLIC    CODE     ---       wireless_uart_init
L251 LINKER/LOCATER V4.66.93.0                                                        12/27/2024  03:02:31  PAGE 107


      000000D0H   SFRSYM    DATA     BYTE      PSW
      0000009DH   SFRSYM    DATA     BYTE      IRCBAND
      00000097H   SFRSYM    DATA     BYTE      AUXR2
      000000EFH   SFRSYM    DATA     BYTE      AUXINTIF
      000000FDH   SFRSYM    DATA     BYTE      S4CON
      000000ACH   SFRSYM    DATA     BYTE      S3CON
      0000009AH   SFRSYM    DATA     BYTE      S2CON
      0000009BH   SFRSYM    DATA     BYTE      S2BUF
      000000B7H   SFRSYM    DATA     BYTE      IPH
      000000CDH   SFRSYM    DATA     BYTE      SPSTAT
      000000DDH   SFRSYM    DATA     BYTE      T4T3M
      000000C1H   SFRSYM    DATA     BYTE      WDT_CONTR
      000000DFH   SFRSYM    DATA     BYTE      IP3
      000000F4H   SFRSYM    DATA     BYTE      USBCON
      000000B5H   SFRSYM    DATA     BYTE      IP2
      000000FFH   SFRSYM    DATA     BYTE      RSTCFG
      000000C7H   SFRSYM    DATA     BYTE      IAP_CONTR
      000000F9H   SFRSYM    DATA     BYTE      LINICR
      0000008EH   SFRSYM    DATA     BYTE      AUXR
      000000AFH   SFRSYM    DATA     BYTE      IE2
      00000080H.7 SFRSYM    DATA     BIT       P07
      00000088H   SFRSYM    DATA     BYTE      TCON
      00000089H   SFRSYM    DATA     BYTE      TMOD
      00000098H   SFRSYM    DATA     BYTE      SCON
      000000F1H   SFRSYM    DATA     BYTE      CANICR
      00000087H   SFRSYM    DATA     BYTE      PCON
      000000BCH   SFRSYM    DATA     BYTE      ADC_CONTR
      000000E7H   SFRSYM    DATA     BYTE      CMPCR2
      000000E6H   SFRSYM    DATA     BYTE      CMPCR1
      000000DEH   SFRSYM    DATA     BYTE      ADCCFG
      000000B8H   SFRSYM    DATA     BYTE      IP
      0000008FH   SFRSYM    DATA     BYTE      INTCLKO
      000000EEH   SFRSYM    DATA     BYTE      IP3H
      000000B6H   SFRSYM    DATA     BYTE      IP2H
      000000A8H   SFRSYM    DATA     BYTE      IE
      000000BBH   SFRSYM    DATA     BYTE      P_SW3
      000000BAH   SFRSYM    DATA     BYTE      P_SW2
      000000A2H   SFRSYM    DATA     BYTE      P_SW1
      000000CEH   SFRSYM    DATA     BYTE      SPCTL
      000000F8H   SFRSYM    DATA     BYTE      P7
      000000E8H   SFRSYM    DATA     BYTE      P6
      000000C8H   SFRSYM    DATA     BYTE      P5
      000000C0H   SFRSYM    DATA     BYTE      P4
      000000B0H   SFRSYM    DATA     BYTE      P3
      000000A0H   SFRSYM    DATA     BYTE      P2
      00000090H   SFRSYM    DATA     BYTE      P1
      00000080H   SFRSYM    DATA     BYTE      P0
      00000D5AH   SYMBOL    EDATA    BYTE      wireless_uart_data
      00000D5BH   SYMBOL    EDATA    ---       wireless_uart_fifo
      00000D72H   SYMBOL    EDATA    ---       wireless_uart_buffer

      00FFA560H   BLOCK     CODE     ---       LVL=0
      00FFA560H   LINE      CODE     ---       #48
      00FFA560H   LINE      CODE     ---       #51
      00FFA566H   LINE      CODE     ---       #52
      00FFA579H   LINE      CODE     ---       #53
      ---         BLOCKEND  ---      ---       LVL=0
      00001A09H   SYMBOL    EDATA    BYTE      dat
      00001793H   SYMBOL    EDATA    ---       buff
      00001797H   SYMBOL    EDATA    DWORD     len
      000014E3H   SYMBOL    EDATA    ---       buff
      000014E7H   SYMBOL    EDATA    DWORD     len
      000014EBH   SYMBOL    EDATA    DWORD     data_len

      00FFA263H   BLOCK     CODE     ---       LVL=0
L251 LINKER/LOCATER V4.66.93.0                                                        12/27/2024  03:02:31  PAGE 108


      00FFA263H   LINE      CODE     ---       #133
      00FFA263H   LINE      CODE     ---       #135
      00FFA266H   LINE      CODE     ---       #136
      00FFA26EH   LINE      CODE     ---       #138
      00FFA287H   LINE      CODE     ---       #139
      00FFA2A6H   LINE      CODE     ---       #141
      ---         BLOCKEND  ---      ---       LVL=0

      ---         MODULE    ---      ---       main
      00FF9836H   PUBLIC    CODE     ---       main
      000009A5H   PUBLIC    EDATA    FLOAT     offset2_weight
      000009A9H   PUBLIC    EDATA    ---       last_ccd_data
      000000D0H   SFRSYM    DATA     BYTE      PSW
      0000009DH   SFRSYM    DATA     BYTE      IRCBAND
      00000097H   SFRSYM    DATA     BYTE      AUXR2
      000000EFH   SFRSYM    DATA     BYTE      AUXINTIF
      000000FDH   SFRSYM    DATA     BYTE      S4CON
      000000ACH   SFRSYM    DATA     BYTE      S3CON
      0000009AH   SFRSYM    DATA     BYTE      S2CON
      000000B7H   SFRSYM    DATA     BYTE      IPH
      000000CDH   SFRSYM    DATA     BYTE      SPSTAT
      000000DDH   SFRSYM    DATA     BYTE      T4T3M
      000000C1H   SFRSYM    DATA     BYTE      WDT_CONTR
      000000DFH   SFRSYM    DATA     BYTE      IP3
      000000F4H   SFRSYM    DATA     BYTE      USBCON
      000000B5H   SFRSYM    DATA     BYTE      IP2
      000000FFH   SFRSYM    DATA     BYTE      RSTCFG
      000000C7H   SFRSYM    DATA     BYTE      IAP_CONTR
      000000F9H   SFRSYM    DATA     BYTE      LINICR
      0000008EH   SFRSYM    DATA     BYTE      AUXR
      000000AFH   SFRSYM    DATA     BYTE      IE2
      00000088H   SFRSYM    DATA     BYTE      TCON
      00000089H   SFRSYM    DATA     BYTE      TMOD
      00000098H   SFRSYM    DATA     BYTE      SCON
      000000F1H   SFRSYM    DATA     BYTE      CANICR
      00000087H   SFRSYM    DATA     BYTE      PCON
      000000BCH   SFRSYM    DATA     BYTE      ADC_CONTR
      000000E7H   SFRSYM    DATA     BYTE      CMPCR2
      000000E6H   SFRSYM    DATA     BYTE      CMPCR1
      000000DEH   SFRSYM    DATA     BYTE      ADCCFG
      000000B8H   SFRSYM    DATA     BYTE      IP
      0000008FH   SFRSYM    DATA     BYTE      INTCLKO
      000000EEH   SFRSYM    DATA     BYTE      IP3H
      000000B6H   SFRSYM    DATA     BYTE      IP2H
      000000A8H   SFRSYM    DATA     BYTE      IE
      000000BBH   SFRSYM    DATA     BYTE      P_SW3
      000000BAH   SFRSYM    DATA     BYTE      P_SW2
      000000A2H   SFRSYM    DATA     BYTE      P_SW1
      000000CEH   SFRSYM    DATA     BYTE      SPCTL
      000000F8H   SFRSYM    DATA     BYTE      P7
      000000E8H   SFRSYM    DATA     BYTE      P6
      000000C8H   SFRSYM    DATA     BYTE      P5
      000000C0H   SFRSYM    DATA     BYTE      P4
      000000B0H   SFRSYM    DATA     BYTE      P3
      000000A0H   SFRSYM    DATA     BYTE      P2
      00000090H   SFRSYM    DATA     BYTE      P1
      00000080H   SFRSYM    DATA     BYTE      P0

      00FF9836H   BLOCK     CODE     ---       LVL=0
      0000197FH   SYMBOL    EDATA    WORD      count_time
      00001981H   SYMBOL    EDATA    BYTE      display_mode
      00FF9836H   LINE      CODE     ---       #14
      00FF9836H   LINE      CODE     ---       #15
      00FF9836H   LINE      CODE     ---       #16
      00FF983CH   LINE      CODE     ---       #17
L251 LINKER/LOCATER V4.66.93.0                                                        12/27/2024  03:02:31  PAGE 109


      00FF9841H   LINE      CODE     ---       #18
      00FF984CH   LINE      CODE     ---       #19
      00FF984FH   LINE      CODE     ---       #23
      00FF9852H   LINE      CODE     ---       #26
      00FF9855H   LINE      CODE     ---       #28
      00FF9855H   LINE      CODE     ---       #37
      00FF985EH   LINE      CODE     ---       #43
      00FF9870H   LINE      CODE     ---       #47
      00FF9879H   LINE      CODE     ---       #48
      00FF9885H   LINE      CODE     ---       #49
      00FF9891H   LINE      CODE     ---       #50
      00FF9896H   LINE      CODE     ---       #51
      00FF98A5H   LINE      CODE     ---       #52
      00FF98A5H   LINE      CODE     ---       #53
      00FF98AFH   LINE      CODE     ---       #54
      00FF98AFH   LINE      CODE     ---       #55
      00FF98B2H   LINE      CODE     ---       #56
      00FF98B4H   LINE      CODE     ---       #58
      00FF98B4H   LINE      CODE     ---       #59
      00FF98B7H   LINE      CODE     ---       #60
      00FF98B7H   LINE      CODE     ---       #62
      00FF98B7H   LINE      CODE     ---       #63
      00FF98BCH   LINE      CODE     ---       #64
      00FF98BEH   LINE      CODE     ---       #66
      ---         BLOCKEND  ---      ---       LVL=0

      ---         MODULE    ---      ---       isr
      00FFA2A7H   PUBLIC    CODE     ---       UART1_Isr
      00FF9EC2H   PUBLIC    CODE     ---       UART2_Isr
      00FFA57AH   PUBLIC    CODE     ---       UART3_Isr
      00FFA594H   PUBLIC    CODE     ---       UART4_Isr
      00FF0086H   PUBLIC    CODE     ---       INT0_Isr
      00FF000AH   PUBLIC    CODE     ---       INT1_Isr
      00FF008EH   PUBLIC    CODE     ---       INT2_Isr
      00FF0096H   PUBLIC    CODE     ---       INT3_Isr
      00FF009EH   PUBLIC    CODE     ---       INT4_Isr
      00FF0012H   PUBLIC    CODE     ---       TM0_Isr
      00FF001AH   PUBLIC    CODE     ---       TM1_Isr
      00FFA686H   PUBLIC    CODE     ---       TM2_Isr
      00FF607EH   PUBLIC    CODE     ---       TM3_Isr
      00FF68DAH   PUBLIC    CODE     ---       TM4_Isr
      000000D0H   SFRSYM    DATA     BYTE      PSW
      0000009DH   SFRSYM    DATA     BYTE      IRCBAND
      00000097H   SFRSYM    DATA     BYTE      AUXR2
      000000EFH   SFRSYM    DATA     BYTE      AUXINTIF
      000000FDH   SFRSYM    DATA     BYTE      S4CON
      000000ACH   SFRSYM    DATA     BYTE      S3CON
      0000009AH   SFRSYM    DATA     BYTE      S2CON
      000000B7H   SFRSYM    DATA     BYTE      IPH
      000000CDH   SFRSYM    DATA     BYTE      SPSTAT
      000000DDH   SFRSYM    DATA     BYTE      T4T3M
      000000C1H   SFRSYM    DATA     BYTE      WDT_CONTR
      000000DFH   SFRSYM    DATA     BYTE      IP3
      000000F4H   SFRSYM    DATA     BYTE      USBCON
      000000B5H   SFRSYM    DATA     BYTE      IP2
      000000FFH   SFRSYM    DATA     BYTE      RSTCFG
      000000C7H   SFRSYM    DATA     BYTE      IAP_CONTR
      000000F9H   SFRSYM    DATA     BYTE      LINICR
      0000008EH   SFRSYM    DATA     BYTE      AUXR
      000000AFH   SFRSYM    DATA     BYTE      IE2
      000000A0H.6 SFRSYM    DATA     BIT       P26
      000000B0H.5 SFRSYM    DATA     BIT       P35
      000000C0H.4 SFRSYM    DATA     BIT       P44
      000000C8H.2 SFRSYM    DATA     BIT       P52
      00000088H   SFRSYM    DATA     BYTE      TCON
L251 LINKER/LOCATER V4.66.93.0                                                        12/27/2024  03:02:31  PAGE 110


      00000089H   SFRSYM    DATA     BYTE      TMOD
      00000098H   SFRSYM    DATA     BYTE      SCON
      000000F1H   SFRSYM    DATA     BYTE      CANICR
      00000087H   SFRSYM    DATA     BYTE      PCON
      00000099H   SFRSYM    DATA     BYTE      SBUF
      000000BCH   SFRSYM    DATA     BYTE      ADC_CONTR
      000000E7H   SFRSYM    DATA     BYTE      CMPCR2
      000000E6H   SFRSYM    DATA     BYTE      CMPCR1
      000000DEH   SFRSYM    DATA     BYTE      ADCCFG
      000000B8H   SFRSYM    DATA     BYTE      IP
      0000008FH   SFRSYM    DATA     BYTE      INTCLKO
      000000EEH   SFRSYM    DATA     BYTE      IP3H
      000000B6H   SFRSYM    DATA     BYTE      IP2H
      000000A8H   SFRSYM    DATA     BYTE      IE
      000000BBH   SFRSYM    DATA     BYTE      P_SW3
      000000BAH   SFRSYM    DATA     BYTE      P_SW2
      000000A2H   SFRSYM    DATA     BYTE      P_SW1
      000000CEH   SFRSYM    DATA     BYTE      SPCTL
      000000F8H   SFRSYM    DATA     BYTE      P7
      000000E8H   SFRSYM    DATA     BYTE      P6
      000000C8H   SFRSYM    DATA     BYTE      P5
      000000C0H   SFRSYM    DATA     BYTE      P4
      000000B0H   SFRSYM    DATA     BYTE      P3
      000000A0H   SFRSYM    DATA     BYTE      P2
      00000090H   SFRSYM    DATA     BYTE      P1
      00000080H   SFRSYM    DATA     BYTE      P0

      00FFA2A7H   BLOCK     CODE     ---       LVL=0
      00FFA2A9H   BLOCK     CODE     NEAR LAB  LVL=1
      00001A0AH   SYMBOL    EDATA    BYTE      res
      00001982H   SYMBOL    EDATA    BYTE      dwon_count
      ---         BLOCKEND  ---      ---       LVL=1
      00FFA2A7H   LINE      CODE     ---       #26
      00FFA2A9H   LINE      CODE     ---       #27
      00FFA2A9H   LINE      CODE     ---       #30
      00FFA2AEH   LINE      CODE     ---       #32
      00FFA2B1H   LINE      CODE     ---       #33
      00FFA2B6H   LINE      CODE     ---       #34
      00FFA2B6H   LINE      CODE     ---       #35
      00FFA2BBH   LINE      CODE     ---       #37
      00FFA2BEH   LINE      CODE     ---       #38
      00FFA2C4H   LINE      CODE     ---       #40
      00FFA2C9H   LINE      CODE     ---       #42
      00FFA2DBH   LINE      CODE     ---       #43
      00FFA2DFH   LINE      CODE     ---       #44
      00FFA2E1H   LINE      CODE     ---       #47
      00FFA2E6H   LINE      CODE     ---       #48
      00FFA2E6H   LINE      CODE     ---       #49
      ---         BLOCKEND  ---      ---       LVL=0

      00FF9EC2H   BLOCK     CODE     ---       LVL=0
      00FF9EC2H   LINE      CODE     ---       #53
      00FF9ED6H   LINE      CODE     ---       #55
      00FF9EDBH   LINE      CODE     ---       #57
      00FF9EDEH   LINE      CODE     ---       #58
      00FF9EE3H   LINE      CODE     ---       #59
      00FF9EE3H   LINE      CODE     ---       #60
      00FF9EE8H   LINE      CODE     ---       #62
      00FF9EEBH   LINE      CODE     ---       #64
      00FF9EF7H   LINE      CODE     ---       #66
      00FF9EFAH   LINE      CODE     ---       #67
      00FF9EFCH   LINE      CODE     ---       #68
      00FF9F08H   LINE      CODE     ---       #70
      00FF9F0BH   LINE      CODE     ---       #71
      00FF9F0BH   LINE      CODE     ---       #73
L251 LINKER/LOCATER V4.66.93.0                                                        12/27/2024  03:02:31  PAGE 111


      ---         BLOCKEND  ---      ---       LVL=0

      00FFA57AH   BLOCK     CODE     ---       LVL=0
      00FFA57AH   LINE      CODE     ---       #77
      00FFA57CH   LINE      CODE     ---       #79
      00FFA581H   LINE      CODE     ---       #81
      00FFA584H   LINE      CODE     ---       #82
      00FFA589H   LINE      CODE     ---       #83
      00FFA589H   LINE      CODE     ---       #84
      00FFA58EH   LINE      CODE     ---       #86
      00FFA591H   LINE      CODE     ---       #89
      ---         BLOCKEND  ---      ---       LVL=0

      00FFA594H   BLOCK     CODE     ---       LVL=0
      00FFA594H   LINE      CODE     ---       #94
      00FFA596H   LINE      CODE     ---       #96
      00FFA59BH   LINE      CODE     ---       #98
      00FFA59EH   LINE      CODE     ---       #99
      00FFA5A3H   LINE      CODE     ---       #100
      00FFA5A3H   LINE      CODE     ---       #101
      00FFA5A8H   LINE      CODE     ---       #103
      00FFA5ABH   LINE      CODE     ---       #107
      ---         BLOCKEND  ---      ---       LVL=0

      00FF0086H   BLOCK     CODE     ---       LVL=0
      00FF0086H   LINE      CODE     ---       #111
      00FF0086H   LINE      CODE     ---       #113
      00FF0089H   LINE      CODE     ---       #114
      ---         BLOCKEND  ---      ---       LVL=0

      00FF000AH   BLOCK     CODE     ---       LVL=0
      00FF000AH   LINE      CODE     ---       #115
      00FF000AH   LINE      CODE     ---       #118
      ---         BLOCKEND  ---      ---       LVL=0

      00FF008EH   BLOCK     CODE     ---       LVL=0
      00FF008EH   LINE      CODE     ---       #119
      00FF008EH   LINE      CODE     ---       #121
      00FF0091H   LINE      CODE     ---       #122
      ---         BLOCKEND  ---      ---       LVL=0

      00FF0096H   BLOCK     CODE     ---       LVL=0
      00FF0096H   LINE      CODE     ---       #123
      00FF0096H   LINE      CODE     ---       #125
      00FF0099H   LINE      CODE     ---       #126
      ---         BLOCKEND  ---      ---       LVL=0

      00FF009EH   BLOCK     CODE     ---       LVL=0
      00FF009EH   LINE      CODE     ---       #128
      00FF009EH   LINE      CODE     ---       #130
      00FF00A1H   LINE      CODE     ---       #131
      ---         BLOCKEND  ---      ---       LVL=0

      00FF0012H   BLOCK     CODE     ---       LVL=0
      00FF0012H   LINE      CODE     ---       #133
      00FF0012H   LINE      CODE     ---       #136
      ---         BLOCKEND  ---      ---       LVL=0

      00FF001AH   BLOCK     CODE     ---       LVL=0
      00FF001AH   LINE      CODE     ---       #137
      00FF001AH   LINE      CODE     ---       #140
      ---         BLOCKEND  ---      ---       LVL=0

      00FFA686H   BLOCK     CODE     ---       LVL=0
      00FFA686H   LINE      CODE     ---       #141
L251 LINKER/LOCATER V4.66.93.0                                                        12/27/2024  03:02:31  PAGE 112


      00FFA686H   LINE      CODE     ---       #143
      00FFA689H   LINE      CODE     ---       #145
      ---         BLOCKEND  ---      ---       LVL=0

      00FF607EH   BLOCK     CODE     ---       LVL=0
      00FF6092H   BLOCK     CODE     NEAR LAB  LVL=1
      00001983H   SYMBOL    EDATA    BYTE      TM3_Isr_count
      00001984H   SYMBOL    EDATA    BYTE      last_aim_angle_filter
      ---         BLOCKEND  ---      ---       LVL=1
      00FF607EH   LINE      CODE     ---       #146
      00FF6092H   LINE      CODE     ---       #147
      00FF6092H   LINE      CODE     ---       #150
      00FF6095H   LINE      CODE     ---       #152
      00FF60A1H   LINE      CODE     ---       #155
      00FF60AAH   LINE      CODE     ---       #156
      00FF60B9H   LINE      CODE     ---       #157
      00FF60BBH   LINE      CODE     ---       #159
      00FF60CAH   LINE      CODE     ---       #160
      00FF60CAH   LINE      CODE     ---       #162
      00FF60D4H   LINE      CODE     ---       #163
      00FF60E4H   LINE      CODE     ---       #164
      00FF60F0H   LINE      CODE     ---       #165
      00FF60F6H   LINE      CODE     ---       #166
      00FF60F6H   LINE      CODE     ---       #168
      00FF6100H   LINE      CODE     ---       #169
      00FF6119H   LINE      CODE     ---       #170
      00FF6125H   LINE      CODE     ---       #171
      00FF612BH   LINE      CODE     ---       #172
      00FF612BH   LINE      CODE     ---       #174
      00FF6135H   LINE      CODE     ---       #175
      00FF6143H   LINE      CODE     ---       #176
      00FF614FH   LINE      CODE     ---       #177
      00FF6157H   LINE      CODE     ---       #178
      00FF6157H   LINE      CODE     ---       #181
      00FF6161H   LINE      CODE     ---       #182
      00FF616FH   LINE      CODE     ---       #183
      00FF617BH   LINE      CODE     ---       #184
      00FF6183H   LINE      CODE     ---       #185
      00FF6183H   LINE      CODE     ---       #188
      00FF618DH   LINE      CODE     ---       #189
      00FF61A4H   LINE      CODE     ---       #191
      00FF61BAH   LINE      CODE     ---       #192
      00FF61C2H   LINE      CODE     ---       #193
      00FF61C2H   LINE      CODE     ---       #196
      00FF61CCH   LINE      CODE     ---       #197
      00FF61DAH   LINE      CODE     ---       #198
      00FF61E6H   LINE      CODE     ---       #199
      00FF61EEH   LINE      CODE     ---       #200
      00FF61EEH   LINE      CODE     ---       #203
      00FF61F8H   LINE      CODE     ---       #204
      00FF6206H   LINE      CODE     ---       #205
      00FF6212H   LINE      CODE     ---       #206
      00FF621AH   LINE      CODE     ---       #207
      00FF621AH   LINE      CODE     ---       #211
      00FF621FH   LINE      CODE     ---       #213
      00FF6237H   LINE      CODE     ---       #214
      00FF6241H   LINE      CODE     ---       #215
      00FF624BH   LINE      CODE     ---       #216
      00FF624DH   LINE      CODE     ---       #217
      00FF6259H   LINE      CODE     ---       #218
      00FF6263H   LINE      CODE     ---       #219
      00FF626FH   LINE      CODE     ---       #220
      00FF6271H   LINE      CODE     ---       #221
      00FF627DH   LINE      CODE     ---       #222
      00FF6289H   LINE      CODE     ---       #223
L251 LINKER/LOCATER V4.66.93.0                                                        12/27/2024  03:02:31  PAGE 113


      00FF6295H   LINE      CODE     ---       #224
      00FF6295H   LINE      CODE     ---       #226
      00FF62ACH   LINE      CODE     ---       #230
      00FF62D7H   LINE      CODE     ---       #231
      00FF62DCH   LINE      CODE     ---       #232
      00FF62DCH   LINE      CODE     ---       #234
      00FF62E5H   LINE      CODE     ---       #236
      00FF62EBH   LINE      CODE     ---       #237
      00FF62F1H   LINE      CODE     ---       #239
      00FF62F1H   LINE      CODE     ---       #240
      00FF62FDH   LINE      CODE     ---       #241
      00FF6309H   LINE      CODE     ---       #242
      00FF6314H   LINE      CODE     ---       #243
      00FF631FH   LINE      CODE     ---       #244
      00FF6321H   LINE      CODE     ---       #245
      00FF632AH   LINE      CODE     ---       #246
      00FF6333H   LINE      CODE     ---       #247
      00FF6333H   LINE      CODE     ---       #251
      00FF633BH   LINE      CODE     ---       #252
      00FF634FH   LINE      CODE     ---       #253
      00FF636DH   LINE      CODE     ---       #254
      00FF6383H   LINE      CODE     ---       #255
      00FF6392H   LINE      CODE     ---       #256
      00FF6395H   LINE      CODE     ---       #257
      00FF6395H   LINE      CODE     ---       #258
      00FF63AFH   LINE      CODE     ---       #259
      00FF63C2H   LINE      CODE     ---       #260
      00FF63C5H   LINE      CODE     ---       #261
      00FF63C5H   LINE      CODE     ---       #265
      00FF63EDH   LINE      CODE     ---       #266
      00FF63F9H   LINE      CODE     ---       #268
      00FF6401H   LINE      CODE     ---       #269
      00FF640EH   LINE      CODE     ---       #270
      00FF6424H   LINE      CODE     ---       #271
      00FF643AH   LINE      CODE     ---       #273
      00FF6452H   LINE      CODE     ---       #274
      00FF6468H   LINE      CODE     ---       #276
      00FF6472H   LINE      CODE     ---       #277
      00FF647AH   LINE      CODE     ---       #278
      00FF6493H   LINE      CODE     ---       #282
      00FF649EH   LINE      CODE     ---       #284
      00FF649EH   LINE      CODE     ---       #289
      00FF64A7H   LINE      CODE     ---       #291
      00FF64BBH   LINE      CODE     ---       #292
      00FF64CFH   LINE      CODE     ---       #293
      00FF64DEH   LINE      CODE     ---       #295
      00FF64E0H   LINE      CODE     ---       #296
      00FF64EBH   LINE      CODE     ---       #297
      00FF64EBH   LINE      CODE     ---       #299
      ---         BLOCKEND  ---      ---       LVL=0

      00FF68DAH   BLOCK     CODE     ---       LVL=0
      00FF68DAH   LINE      CODE     ---       #301
      00FF68EEH   LINE      CODE     ---       #303
      00FF68F1H   LINE      CODE     ---       #307
      00FF68F4H   LINE      CODE     ---       #308
      00FF68FDH   LINE      CODE     ---       #309
      00FF6902H   LINE      CODE     ---       #310
      00FF6902H   LINE      CODE     ---       #315
      00FF6905H   LINE      CODE     ---       #318
      00FF6910H   LINE      CODE     ---       #319
      00FF691BH   LINE      CODE     ---       #320
      00FF6926H   LINE      CODE     ---       #327
      00FF6942H   LINE      CODE     ---       #328
      00FF6960H   LINE      CODE     ---       #329
L251 LINKER/LOCATER V4.66.93.0                                                        12/27/2024  03:02:31  PAGE 114


      00FF6975H   LINE      CODE     ---       #332
      00FF6978H   LINE      CODE     ---       #336
      00FF697BH   LINE      CODE     ---       #338
      00FF6986H   LINE      CODE     ---       #339
      00FF6991H   LINE      CODE     ---       #341
      00FF69AFH   LINE      CODE     ---       #342
      00FF69B7H   LINE      CODE     ---       #344
      00FF69C2H   LINE      CODE     ---       #345
      00FF69C5H   LINE      CODE     ---       #347
      00FF69D4H   LINE      CODE     ---       #348
      00FF69E3H   LINE      CODE     ---       #351
      00FF69EFH   LINE      CODE     ---       #353
      00FF6A18H   LINE      CODE     ---       #354
      00FF6A1EH   LINE      CODE     ---       #355
      00FF6A26H   LINE      CODE     ---       #356
      00FF6A2DH   LINE      CODE     ---       #358
      00FF6A30H   LINE      CODE     ---       #359
      00FF6A48H   LINE      CODE     ---       #360
      00FF6A4EH   LINE      CODE     ---       #361
      00FF6A54H   LINE      CODE     ---       #362
      00FF6A5CH   LINE      CODE     ---       #364
      00FF6A5EH   LINE      CODE     ---       #365
      00FF6A76H   LINE      CODE     ---       #366
      00FF6A7CH   LINE      CODE     ---       #367
      00FF6A82H   LINE      CODE     ---       #368
      00FF6A8AH   LINE      CODE     ---       #370
      00FF6A8CH   LINE      CODE     ---       #371
      00FF6AA4H   LINE      CODE     ---       #372
      00FF6AAAH   LINE      CODE     ---       #373
      00FF6AB2H   LINE      CODE     ---       #375
      00FF6AB4H   LINE      CODE     ---       #376
      00FF6AC0H   LINE      CODE     ---       #377
      00FF6AC6H   LINE      CODE     ---       #378
      00FF6ACEH   LINE      CODE     ---       #380
      00FF6ACEH   LINE      CODE     ---       #383
      00FF6B82H   LINE      CODE     ---       #392
      00FF6B88H   LINE      CODE     ---       #393
      00FF6B8EH   LINE      CODE     ---       #394
      00FF6B94H   LINE      CODE     ---       #395
      00FF6B9AH   LINE      CODE     ---       #396
      00FF6BA2H   LINE      CODE     ---       #397
      00FF6BAAH   LINE      CODE     ---       #398
      00FF6BAAH   LINE      CODE     ---       #400
      00FF6BB3H   LINE      CODE     ---       #401
      00FF6BB6H   LINE      CODE     ---       #402
      00FF6BB6H   LINE      CODE     ---       #404
      00FF6BEAH   LINE      CODE     ---       #407
      00FF6BFEH   LINE      CODE     ---       #408
      00FF6C04H   LINE      CODE     ---       #409
      00FF6C06H   LINE      CODE     ---       #410
      00FF6C1AH   LINE      CODE     ---       #411
      00FF6C1FH   LINE      CODE     ---       #412
      00FF6C21H   LINE      CODE     ---       #414
      00FF6C29H   LINE      CODE     ---       #415
      00FF6C29H   LINE      CODE     ---       #417
      00FF6C48H   LINE      CODE     ---       #418
      00FF6C4EH   LINE      CODE     ---       #419
      00FF6C54H   LINE      CODE     ---       #420
      00FF6C5AH   LINE      CODE     ---       #421
      00FF6C5AH   LINE      CODE     ---       #422
      00FF6C66H   LINE      CODE     ---       #423
      00FF6C6BH   LINE      CODE     ---       #424
      00FF6C6DH   LINE      CODE     ---       #426
      00FF6C72H   LINE      CODE     ---       #427
      00FF6C72H   LINE      CODE     ---       #428
L251 LINKER/LOCATER V4.66.93.0                                                        12/27/2024  03:02:31  PAGE 115


      00FF6C72H   LINE      CODE     ---       #433
      00FF6C75H   LINE      CODE     ---       #434
      00FF6C78H   LINE      CODE     ---       #436
      00FF6C80H   LINE      CODE     ---       #437
      00FF6C88H   LINE      CODE     ---       #439
      00FF6C8BH   LINE      CODE     ---       #440
      00FF6C93H   LINE      CODE     ---       #441
      00FF6C9BH   LINE      CODE     ---       #442
      ---         BLOCKEND  ---      ---       LVL=0

      ---         MODULE    ---      ---       CCD_Driver
      00FF8261H   PUBLIC    CODE     ---       Bin_CCD_Filter
      00FF7C13H   PUBLIC    CODE     ---       get_mid_point1
      00FF7974H   PUBLIC    CODE     ---       get_mid_point2
      00FFA39BH   PUBLIC    CODE     ---       myabs
      00FF5ABBH   PUBLIC    CODE     ---       get_offset
      00FF97ABH   PUBLIC    CODE     ---       zebra_stop
      00FF9171H   PUBLIC    CODE     ---       ccd_threshold
      00FF8DF1H   PUBLIC    CODE     ---       ccd_two_value
      00000404H   PUBLIC    EDATA    WORD      speed_stright
      00000406H   PUBLIC    EDATA    INT       flag_cross_circle
      00000408H   PUBLIC    EDATA    BYTE      count_ones_ccd1
      00000409H   PUBLIC    EDATA    BYTE      circle_count
      0000040AH   PUBLIC    EDATA    BYTE      count_ones_ccd2
      0000040BH   PUBLIC    EDATA    BYTE      last_left_point1
      0000040CH   PUBLIC    EDATA    BYTE      Now_left_point2
      0000040DH   PUBLIC    EDATA    BYTE      last_left_point2
      0000040EH   PUBLIC    EDATA    DWORD     turn_kp
      00000412H   PUBLIC    EDATA    FLOAT     aim_angle_filter
      00000416H   PUBLIC    EDATA    BYTE      cross_check
      00000417H   PUBLIC    EDATA    BYTE      ccd_select
      00000418H   PUBLIC    EDATA    BYTE      last_mid_point2
      00000419H   PUBLIC    EDATA    BYTE      zebra_flag
      0000041AH   PUBLIC    EDATA    BYTE      ramp_check
      0000041BH   PUBLIC    EDATA    BYTE      tof_enable
      0000041CH   PUBLIC    EDATA    BYTE      last_count_ones_ccd1
      0000041DH   PUBLIC    EDATA    BYTE      last_count_ones_ccd2
      0000041EH   PUBLIC    EDATA    DWORD     inertia_kd
      00000422H   PUBLIC    EDATA    WORD      speed_cross
      00000424H   PUBLIC    EDATA    CHAR      last_offset
      00000425H   PUBLIC    EDATA    BYTE      circle_distance
      00000426H   PUBLIC    EDATA    WORD      speed_ramp
      00000428H   PUBLIC    EDATA    INT       flag_cross
      0000042AH   PUBLIC    EDATA    DWORD     inertia_kp
      0000042EH   PUBLIC    EDATA    BYTE      circle_right_in_flag
      0000042FH   PUBLIC    EDATA    INT       flag_ramp
      00000431H   PUBLIC    EDATA    BYTE      circle_right_out_flag
      00000432H   PUBLIC    EDATA    BYTE      circle_sideline_count
      00000433H   PUBLIC    EDATA    BYTE      circle_left_in_flag
      00000434H   PUBLIC    EDATA    BYTE      circle_left_out_flag
      00000435H   PUBLIC    EDATA    CHAR      offset1
      00000436H   PUBLIC    EDATA    CHAR      offset2
      00000437H   PUBLIC    EDATA    BYTE      circle_left_out
      00000438H   PUBLIC    EDATA    WORD      speed_turn
      0000043AH   PUBLIC    EDATA    WORD      ccd1_w_count
      0000043CH   PUBLIC    EDATA    WORD      ccd2_w_count
      0000043EH   PUBLIC    EDATA    BYTE      zebra_count_stop
      0000043FH   PUBLIC    EDATA    BYTE      ccd1_l_loss
      00000440H   PUBLIC    EDATA    BYTE      ccd2_l_loss
      00000441H   PUBLIC    EDATA    BYTE      ccd1_r_loss
      00000442H   PUBLIC    EDATA    CHAR      last_offset2
      00000443H   PUBLIC    EDATA    BYTE      ccd2_r_loss
      00000444H   PUBLIC    EDATA    BYTE      circle_right_check
      00000445H   PUBLIC    EDATA    CHAR      offset_inertia
      00000446H   PUBLIC    EDATA    WORD      ccd_value1
L251 LINKER/LOCATER V4.66.93.0                                                        12/27/2024  03:02:31  PAGE 116


      00000448H   PUBLIC    EDATA    WORD      ccd_value2
      0000044AH   PUBLIC    EDATA    BYTE      right_point1
      0000044BH   PUBLIC    EDATA    BYTE      right_point2
      0000044CH   PUBLIC    EDATA    BYTE      circle_left_check
      0000044DH   PUBLIC    EDATA    BYTE      cross_circle_cleck
      0000044EH   PUBLIC    EDATA    ---       ccd_data_01
      0000054EH   PUBLIC    EDATA    BYTE      l_circle_max
      0000054FH   PUBLIC    EDATA    ---       ccd_data_02
      0000064FH   PUBLIC    EDATA    BYTE      left_point1
      00000650H   PUBLIC    EDATA    INT       limit_motor_pwm
      00000652H   PUBLIC    EDATA    BYTE      left_point2
      00000653H   PUBLIC    EDATA    INT       flag_circle
      00000655H   PUBLIC    EDATA    CHAR      offset_weight
      00000656H   PUBLIC    EDATA    BYTE      last_right_point1
      00000657H   PUBLIC    EDATA    BYTE      Now_right_point2
      00000658H   PUBLIC    EDATA    BYTE      last_right_point2
      00000659H   PUBLIC    EDATA    BYTE      circle_left_big_check
      0000065AH   PUBLIC    EDATA    BYTE      mid_point1
      0000065BH   PUBLIC    EDATA    BYTE      mid_point2
      0000065CH   PUBLIC    EDATA    WORD      element_ccd_value
      0000065EH   PUBLIC    EDATA    DWORD     turn_kd
      00000662H   PUBLIC    EDATA    BYTE      ccd1_circle_left_out
      000000D0H   SFRSYM    DATA     BYTE      PSW
      0000009DH   SFRSYM    DATA     BYTE      IRCBAND
      00000097H   SFRSYM    DATA     BYTE      AUXR2
      000000EFH   SFRSYM    DATA     BYTE      AUXINTIF
      000000FDH   SFRSYM    DATA     BYTE      S4CON
      000000ACH   SFRSYM    DATA     BYTE      S3CON
      0000009AH   SFRSYM    DATA     BYTE      S2CON
      000000B7H   SFRSYM    DATA     BYTE      IPH
      000000CDH   SFRSYM    DATA     BYTE      SPSTAT
      000000DDH   SFRSYM    DATA     BYTE      T4T3M
      000000C1H   SFRSYM    DATA     BYTE      WDT_CONTR
      000000DFH   SFRSYM    DATA     BYTE      IP3
      000000F4H   SFRSYM    DATA     BYTE      USBCON
      000000B5H   SFRSYM    DATA     BYTE      IP2
      000000FFH   SFRSYM    DATA     BYTE      RSTCFG
      000000C7H   SFRSYM    DATA     BYTE      IAP_CONTR
      000000F9H   SFRSYM    DATA     BYTE      LINICR
      0000008EH   SFRSYM    DATA     BYTE      AUXR
      000000AFH   SFRSYM    DATA     BYTE      IE2
      00000088H   SFRSYM    DATA     BYTE      TCON
      00000089H   SFRSYM    DATA     BYTE      TMOD
      00000098H   SFRSYM    DATA     BYTE      SCON
      000000F1H   SFRSYM    DATA     BYTE      CANICR
      00000087H   SFRSYM    DATA     BYTE      PCON
      000000BCH   SFRSYM    DATA     BYTE      ADC_CONTR
      000000E7H   SFRSYM    DATA     BYTE      CMPCR2
      000000E6H   SFRSYM    DATA     BYTE      CMPCR1
      000000DEH   SFRSYM    DATA     BYTE      ADCCFG
      000000B8H   SFRSYM    DATA     BYTE      IP
      0000008FH   SFRSYM    DATA     BYTE      INTCLKO
      000000EEH   SFRSYM    DATA     BYTE      IP3H
      000000B6H   SFRSYM    DATA     BYTE      IP2H
      000000A8H   SFRSYM    DATA     BYTE      IE
      000000BBH   SFRSYM    DATA     BYTE      P_SW3
      000000BAH   SFRSYM    DATA     BYTE      P_SW2
      000000A2H   SFRSYM    DATA     BYTE      P_SW1
      000000CEH   SFRSYM    DATA     BYTE      SPCTL
      000000F8H   SFRSYM    DATA     BYTE      P7
      000000E8H   SFRSYM    DATA     BYTE      P6
      000000C8H   SFRSYM    DATA     BYTE      P5
      000000C0H   SFRSYM    DATA     BYTE      P4
      000000B0H   SFRSYM    DATA     BYTE      P3
      000000A0H   SFRSYM    DATA     BYTE      P2
L251 LINKER/LOCATER V4.66.93.0                                                        12/27/2024  03:02:31  PAGE 117


      00000090H   SFRSYM    DATA     BYTE      P1
      00000080H   SFRSYM    DATA     BYTE      P0

      00FF9171H   BLOCK     CODE     ---       LVL=0
      000014EFH   SYMBOL    EDATA    ---       ccd_data
      00FF9175H   BLOCK     CODE     NEAR LAB  LVL=1
      000014F3H   SYMBOL    EDATA    WORD      i
      000014F5H   SYMBOL    EDATA    WORD      value1_max
      000014F7H   SYMBOL    EDATA    WORD      value1_min
      000014F9H   SYMBOL    EDATA    WORD      CCD_Threshold
      ---         BLOCKEND  ---      ---       LVL=1
      00FF9171H   LINE      CODE     ---       #77
      00FF9175H   LINE      CODE     ---       #78
      00FF9175H   LINE      CODE     ---       #81
      00FF917BH   LINE      CODE     ---       #83
      00FF9186H   LINE      CODE     ---       #84
      00FF9190H   LINE      CODE     ---       #86
      00FF91A7H   LINE      CODE     ---       #87
      00FF91BAH   LINE      CODE     ---       #88
      00FF91D4H   LINE      CODE     ---       #89
      00FF91DFH   LINE      CODE     ---       #90
      00FF91E9H   LINE      CODE     ---       #92
      00FF9200H   LINE      CODE     ---       #93
      00FF9213H   LINE      CODE     ---       #94
      00FF922DH   LINE      CODE     ---       #95
      00FF923DH   LINE      CODE     ---       #96
      00FF923DH   LINE      CODE     ---       #97
      ---         BLOCKEND  ---      ---       LVL=0

      00FF97ABH   BLOCK     CODE     ---       LVL=0
      00001563H   SYMBOL    EDATA    ---       arr
      00001567H   SYMBOL    EDATA    WORD      n
      00FF97B3H   BLOCK     CODE     NEAR LAB  LVL=1
      00001569H   SYMBOL    EDATA    CHAR      i
      0000156AH   SYMBOL    EDATA    WORD      count
      0000156CH   SYMBOL    EDATA    WORD      prev
      ---         BLOCKEND  ---      ---       LVL=1
      00FF97ABH   LINE      CODE     ---       #100
      00FF97B3H   LINE      CODE     ---       #102
      00FF97B9H   LINE      CODE     ---       #103
      00FF97C4H   LINE      CODE     ---       #104
      00FF97CEH   LINE      CODE     ---       #105
      00FF97D2H   LINE      CODE     ---       #106
      00FF97D2H   LINE      CODE     ---       #107
      00FF97DAH   LINE      CODE     ---       #108
      00FF97F3H   LINE      CODE     ---       #109
      00FF9801H   LINE      CODE     ---       #110
      00FF9801H   LINE      CODE     ---       #111
      00FF9816H   LINE      CODE     ---       #112
      00FF9831H   LINE      CODE     ---       #114
      00FF9835H   LINE      CODE     ---       #115
      ---         BLOCKEND  ---      ---       LVL=0

      00FF8DF1H   BLOCK     CODE     ---       LVL=0
      000016EFH   SYMBOL    EDATA    WORD      value1
      000016F1H   SYMBOL    EDATA    WORD      value2
      00FF8DF9H   BLOCK     CODE     NEAR LAB  LVL=1
      000016F3H   SYMBOL    EDATA    BYTE      i
      000016F4H   SYMBOL    EDATA    WORD      temp_num1
      000016F6H   SYMBOL    EDATA    WORD      temp_num2
      ---         BLOCKEND  ---      ---       LVL=1
      00FF8DF1H   LINE      CODE     ---       #119
      00FF8DF9H   LINE      CODE     ---       #120
      00FF8DF9H   LINE      CODE     ---       #121
      00FF8DFEH   LINE      CODE     ---       #122
L251 LINKER/LOCATER V4.66.93.0                                                        12/27/2024  03:02:31  PAGE 118


      00FF8E04H   LINE      CODE     ---       #123
      00FF8E0AH   LINE      CODE     ---       #124
      00FF8E10H   LINE      CODE     ---       #125
      00FF8E16H   LINE      CODE     ---       #127
      00FF8E1EH   LINE      CODE     ---       #130
      00FF8E34H   LINE      CODE     ---       #131
      00FF8E4AH   LINE      CODE     ---       #133
      00FF8E7CH   LINE      CODE     ---       #134
      00FF8E90H   LINE      CODE     ---       #136
      00FF8EC2H   LINE      CODE     ---       #137
      00FF8ED6H   LINE      CODE     ---       #138
      00FF8EF0H   LINE      CODE     ---       #139
      ---         BLOCKEND  ---      ---       LVL=0

      00FF8261H   BLOCK     CODE     ---       LVL=0
      000019E3H   SYMBOL    EDATA    WORD      i
      00FF8261H   LINE      CODE     ---       #142
      00FF8261H   LINE      CODE     ---       #143
      00FF8261H   LINE      CODE     ---       #144
      00FF8267H   LINE      CODE     ---       #145
      00FF8272H   LINE      CODE     ---       #147
      00FF82CCH   LINE      CODE     ---       #148
      00FF8328H   LINE      CODE     ---       #149
      00FF8345H   LINE      CODE     ---       #151
      00FF8350H   LINE      CODE     ---       #153
      00FF83AAH   LINE      CODE     ---       #154
      00FF8406H   LINE      CODE     ---       #155
      00FF8423H   LINE      CODE     ---       #156
      ---         BLOCKEND  ---      ---       LVL=0

      00FFA39BH   BLOCK     CODE     ---       LVL=0
      000019E5H   SYMBOL    EDATA    INT       number
      00FFA39FH   BLOCK     CODE     NEAR LAB  LVL=1
      00000663H   SYMBOL    EDATA    WORD      abs_number
      ---         BLOCKEND  ---      ---       LVL=1
      00FFA39BH   LINE      CODE     ---       #158
      00FFA39FH   LINE      CODE     ---       #159
      00FFA39FH   LINE      CODE     ---       #162
      00FFA3B3H   LINE      CODE     ---       #163
      00FFA3C1H   LINE      CODE     ---       #165
      00FFA3C5H   LINE      CODE     ---       #167
      ---         BLOCKEND  ---      ---       LVL=0

      00FF7C13H   BLOCK     CODE     ---       LVL=0
      00000665H   SYMBOL    EDATA    BYTE      last_mid_point1
      000019E7H   SYMBOL    EDATA    BYTE      l_point1
      000019E8H   SYMBOL    EDATA    BYTE      r_point1
      00FF7C13H   LINE      CODE     ---       #178
      00FF7C13H   LINE      CODE     ---       #179
      00FF7C13H   LINE      CODE     ---       #181
      00FF7C18H   LINE      CODE     ---       #182
      00FF7C1DH   LINE      CODE     ---       #183
      00FF7C22H   LINE      CODE     ---       #184
      00FF7C2CH   LINE      CODE     ---       #186
      00FF7C5CH   LINE      CODE     ---       #188
      00FF7C64H   LINE      CODE     ---       #189
      00FF7C66H   LINE      CODE     ---       #190
      00FF7C66H   LINE      CODE     ---       #191
      00FF7C6FH   LINE      CODE     ---       #193
      00FF7C7CH   LINE      CODE     ---       #194
      00FF7C81H   LINE      CODE     ---       #195
      00FF7C83H   LINE      CODE     ---       #196
      00FF7C98H   LINE      CODE     ---       #198
      00FF7CA2H   LINE      CODE     ---       #200
      00FF7CD2H   LINE      CODE     ---       #202
L251 LINKER/LOCATER V4.66.93.0                                                        12/27/2024  03:02:31  PAGE 119


      00FF7CDAH   LINE      CODE     ---       #203
      00FF7CDCH   LINE      CODE     ---       #204
      00FF7CDCH   LINE      CODE     ---       #205
      00FF7CE5H   LINE      CODE     ---       #207
      00FF7CF2H   LINE      CODE     ---       #208
      00FF7CF8H   LINE      CODE     ---       #209
      00FF7CFAH   LINE      CODE     ---       #210
      00FF7D11H   LINE      CODE     ---       #257
      00FF7D8DH   LINE      CODE     ---       #262
      00FF7D9DH   LINE      CODE     ---       #263
      00FF7D9DH   LINE      CODE     ---       #265
      00FF7E19H   LINE      CODE     ---       #270
      00FF7E29H   LINE      CODE     ---       #271
      00FF7E29H   LINE      CODE     ---       #273
      00FF7E42H   LINE      CODE     ---       #275
      00FF7E5BH   LINE      CODE     ---       #277
      00FF7E5DH   LINE      CODE     ---       #282
      00FF7E65H   LINE      CODE     ---       #284
      00FF7E65H   LINE      CODE     ---       #286
      00FF7E84H   LINE      CODE     ---       #287
      00FF7E8CH   LINE      CODE     ---       #288
      ---         BLOCKEND  ---      ---       LVL=0

      00FF7974H   BLOCK     CODE     ---       LVL=0
      000019E9H   SYMBOL    EDATA    BYTE      l_point2
      000019EAH   SYMBOL    EDATA    BYTE      r_point2
      00FF7974H   LINE      CODE     ---       #290
      00FF7974H   LINE      CODE     ---       #291
      00FF7974H   LINE      CODE     ---       #293
      00FF7979H   LINE      CODE     ---       #294
      00FF797EH   LINE      CODE     ---       #297
      00FF7988H   LINE      CODE     ---       #299
      00FF79B8H   LINE      CODE     ---       #300
      00FF79C0H   LINE      CODE     ---       #301
      00FF79C2H   LINE      CODE     ---       #302
      00FF79C2H   LINE      CODE     ---       #304
      00FF79CBH   LINE      CODE     ---       #305
      00FF79D0H   LINE      CODE     ---       #306
      00FF79DDH   LINE      CODE     ---       #307
      00FF79DFH   LINE      CODE     ---       #308
      00FF79F4H   LINE      CODE     ---       #311
      00FF79FEH   LINE      CODE     ---       #313
      00FF7A2EH   LINE      CODE     ---       #314
      00FF7A36H   LINE      CODE     ---       #315
      00FF7A38H   LINE      CODE     ---       #316
      00FF7A38H   LINE      CODE     ---       #318
      00FF7A41H   LINE      CODE     ---       #319
      00FF7A47H   LINE      CODE     ---       #320
      00FF7A54H   LINE      CODE     ---       #321
      00FF7A56H   LINE      CODE     ---       #322
      00FF7A6DH   LINE      CODE     ---       #324
      00FF7A75H   LINE      CODE     ---       #325
      00FF7A7DH   LINE      CODE     ---       #328
      00FF7A80H   LINE      CODE     ---       #331
      00FF7AFCH   LINE      CODE     ---       #336
      00FF7B0CH   LINE      CODE     ---       #337
      00FF7B0CH   LINE      CODE     ---       #339
      00FF7B88H   LINE      CODE     ---       #344
      00FF7B98H   LINE      CODE     ---       #345
      00FF7B98H   LINE      CODE     ---       #349
      00FF7BA0H   LINE      CODE     ---       #350
      00FF7BB7H   LINE      CODE     ---       #351
      00FF7BCEH   LINE      CODE     ---       #354
      00FF7BE7H   LINE      CODE     ---       #355
      00FF7C00H   LINE      CODE     ---       #356
L251 LINKER/LOCATER V4.66.93.0                                                        12/27/2024  03:02:31  PAGE 120


      00FF7C02H   LINE      CODE     ---       #358
      00FF7C0AH   LINE      CODE     ---       #359
      00FF7C0AH   LINE      CODE     ---       #360
      00FF7C12H   LINE      CODE     ---       #361
      ---         BLOCKEND  ---      ---       LVL=0

      00FF5ABBH   BLOCK     CODE     ---       LVL=0
      00FF5ABBH   LINE      CODE     ---       #365
      00FF5ABBH   LINE      CODE     ---       #367
      00FF5AC3H   LINE      CODE     ---       #368
      00FF5AD3H   LINE      CODE     ---       #369
      00FF5AE3H   LINE      CODE     ---       #370
      00FF5B11H   LINE      CODE     ---       #371
      00FF5B47H   LINE      CODE     ---       #372
      00FF5B49H   LINE      CODE     ---       #373
      00FF5B7FH   LINE      CODE     ---       #374
      00FF5B7FH   LINE      CODE     ---       #376
      00FF5B86H   LINE      CODE     ---       #380
      00FF5B8FH   LINE      CODE     ---       #381
      00FF5B95H   LINE      CODE     ---       #382
      00FF5B9BH   LINE      CODE     ---       #383
      00FF5B9EH   LINE      CODE     ---       #384
      00FF5BA8H   LINE      CODE     ---       #385
      00FF5BB4H   LINE      CODE     ---       #386
      00FF5BC0H   LINE      CODE     ---       #387
      00FF5BC3H   LINE      CODE     ---       #388
      00FF5BDBH   LINE      CODE     ---       #390
      00FF5BE5H   LINE      CODE     ---       #391
      00FF5BEFH   LINE      CODE     ---       #392
      00FF5BF9H   LINE      CODE     ---       #393
      00FF5BFCH   LINE      CODE     ---       #395
      00FF5C20H   LINE      CODE     ---       #396
      00FF5C2AH   LINE      CODE     ---       #397
      00FF5C36H   LINE      CODE     ---       #398
      00FF5C42H   LINE      CODE     ---       #400
      00FF5C45H   LINE      CODE     ---       #402
      00FF5C75H   LINE      CODE     ---       #403
      00FF5C7FH   LINE      CODE     ---       #404
      00FF5C89H   LINE      CODE     ---       #405
      00FF5C93H   LINE      CODE     ---       #406
      00FF5C96H   LINE      CODE     ---       #408
      00FF5CA0H   LINE      CODE     ---       #409
      00FF5CACH   LINE      CODE     ---       #410
      00FF5CB8H   LINE      CODE     ---       #411
      00FF5CC4H   LINE      CODE     ---       #413
      00FF5CC7H   LINE      CODE     ---       #415
      00FF5CD3H   LINE      CODE     ---       #416
      00FF5CDFH   LINE      CODE     ---       #418
      00FF5CE2H   LINE      CODE     ---       #419
      00FF5CEEH   LINE      CODE     ---       #420
      00FF5CFAH   LINE      CODE     ---       #421
      00FF5D06H   LINE      CODE     ---       #422
      00FF5D12H   LINE      CODE     ---       #424
      00FF5D15H   LINE      CODE     ---       #426
      00FF5D5FH   LINE      CODE     ---       #429
      00FF5D6BH   LINE      CODE     ---       #430
      00FF5D75H   LINE      CODE     ---       #431
      00FF5D7FH   LINE      CODE     ---       #433
      00FF5D81H   LINE      CODE     ---       #435
      00FF5D95H   LINE      CODE     ---       #436
      00FF5DA1H   LINE      CODE     ---       #437
      00FF5DA9H   LINE      CODE     ---       #438
      00FF5DBCH   LINE      CODE     ---       #440
      00FF5DBEH   LINE      CODE     ---       #443
      00FF5DCAH   LINE      CODE     ---       #444
L251 LINKER/LOCATER V4.66.93.0                                                        12/27/2024  03:02:31  PAGE 121


      00FF5DD2H   LINE      CODE     ---       #445
      00FF5DE5H   LINE      CODE     ---       #447
      00FF5DE5H   LINE      CODE     ---       #452
      00FF5E18H   LINE      CODE     ---       #458
      00FF5E25H   LINE      CODE     ---       #460
      00FF5E27H   LINE      CODE     ---       #464
      00FF5E33H   LINE      CODE     ---       #465
      00FF5E4BH   LINE      CODE     ---       #467
      00FF5E4DH   LINE      CODE     ---       #470
      00FF5E5AH   LINE      CODE     ---       #471
      00FF5E5AH   LINE      CODE     ---       #472
      00FF5E5AH   LINE      CODE     ---       #474
      00FF5E7EH   LINE      CODE     ---       #475
      00FF5E8BH   LINE      CODE     ---       #476
      00FF5E8BH   LINE      CODE     ---       #480
      00FF5EB1H   LINE      CODE     ---       #482
      00FF5ED7H   LINE      CODE     ---       #483
      00FF5EDFH   LINE      CODE     ---       #484
      00FF5EECH   LINE      CODE     ---       #486
      00FF5EEFH   LINE      CODE     ---       #488
      00FF5F29H   LINE      CODE     ---       #489
      00FF5F31H   LINE      CODE     ---       #490
      00FF5F3EH   LINE      CODE     ---       #492
      00FF5F41H   LINE      CODE     ---       #494
      00FF5F67H   LINE      CODE     ---       #496
      00FF5F6FH   LINE      CODE     ---       #497
      00FF5F7CH   LINE      CODE     ---       #498
      00FF5F83H   LINE      CODE     ---       #500
      00FF5F85H   LINE      CODE     ---       #502
      00FF5FABH   LINE      CODE     ---       #503
      00FF5FB8H   LINE      CODE     ---       #504
      00FF5FBEH   LINE      CODE     ---       #505
      00FF5FC0H   LINE      CODE     ---       #512
      00FF5FCDH   LINE      CODE     ---       #513
      00FF5FCDH   LINE      CODE     ---       #514
      00FF5FCDH   LINE      CODE     ---       #516
      00FF5FD6H   LINE      CODE     ---       #517
      00FF5FE3H   LINE      CODE     ---       #518
      00FF5FE3H   LINE      CODE     ---       #520
      00FF600AH   LINE      CODE     ---       #521
      00FF601DH   LINE      CODE     ---       #522
      00FF6023H   LINE      CODE     ---       #523
      00FF6029H   LINE      CODE     ---       #524
      00FF6029H   LINE      CODE     ---       #525
      00FF6065H   LINE      CODE     ---       #526
      00FF6078H   LINE      CODE     ---       #527
      00FF607DH   LINE      CODE     ---       #528
      00FF607DH   LINE      CODE     ---       #531
      ---         BLOCKEND  ---      ---       LVL=0

      ---         MODULE    ---      ---       control
      00FF7042H   PUBLIC    CODE     ---       display_1
      00FF8595H   PUBLIC    CODE     ---       car_check
      00FF9E61H   PUBLIC    CODE     ---       KP_get
      00FF99C6H   PUBLIC    CODE     ---       count_ones
      00FFA50DH   PUBLIC    CODE     ---       max
      00FF8847H   PUBLIC    CODE     ---       car_init
      00FF92FDH   PUBLIC    CODE     ---       key_scan
      00FF8424H   PUBLIC    CODE     ---       PosPID_realize
      00FF9676H   PUBLIC    CODE     ---       PID_param_init
      00000AA9H   PUBLIC    EDATA    BYTE      process_flag
      00000AAAH   PUBLIC    EDATA    INT       count_turn_pro_flag
      00000AACH   PUBLIC    EDATA    INT       count_cross_cricle_flag
      00000AAEH   PUBLIC    EDATA    ---       inertia_pid
      00000AD2H   PUBLIC    EDATA    WORD      circle_begin_distence
L251 LINKER/LOCATER V4.66.93.0                                                        12/27/2024  03:02:31  PAGE 122


      00000AD4H   PUBLIC    EDATA    BYTE      car_ready_gogogo
      00000AD5H   PUBLIC    EDATA    INT       steer_pwm_out
      00000AD7H   PUBLIC    EDATA    FLOAT     KP
      00000ADBH   PUBLIC    EDATA    INT       count_zebra_flag
      00000ADDH   PUBLIC    EDATA    INT       motor_pwm_out
      00000ADFH   PUBLIC    EDATA    WORD      tuen_pro_distence
      00000AE1H   PUBLIC    EDATA    INT       count_nocri_flag
      00000AE3H   PUBLIC    EDATA    BYTE      car_ready_flag
      00000AE4H   PUBLIC    EDATA    INT       count_cross_flag
      00000AE6H   PUBLIC    EDATA    WORD      cross_cricle_distence
      00000AE8H   PUBLIC    EDATA    INT       dat
      00000AEAH   PUBLIC    EDATA    ---       circle_run_point
      00000B12H   PUBLIC    EDATA    INT       count_ramp_flag
      00000B14H   PUBLIC    EDATA    FLOAT     A
      00000B18H   PUBLIC    EDATA    ---       steer_pid
      00000B3CH   PUBLIC    EDATA    WORD      zebra_distence
      00000B3EH   PUBLIC    EDATA    BYTE      key_mode
      00000B3FH   PUBLIC    EDATA    ---       motor_pid
      00000B63H   PUBLIC    EDATA    WORD      cross_distence
      00000B65H   PUBLIC    EDATA    WORD      ramp_distence
      00000B67H   PUBLIC    EDATA    INT       count_crbegin_flag
      00000B69H   PUBLIC    EDATA    WORD      circle_no_distence
      00000B6BH   PUBLIC    EDATA    INT       key_test
      00000B6DH   PUBLIC    EDATA    BYTE      TM3_Isr_count
      00000B6EH   PUBLIC    EDATA    INT       test0
      00000B70H   PUBLIC    EDATA    FLOAT     bas_kp
      0000120DH   PUBLIC    EDATA    BYTE      ?pid_realize_a?BYTE
      000000D0H   SFRSYM    DATA     BYTE      PSW
      0000009DH   SFRSYM    DATA     BYTE      IRCBAND
      00000097H   SFRSYM    DATA     BYTE      AUXR2
      000000EFH   SFRSYM    DATA     BYTE      AUXINTIF
      000000FDH   SFRSYM    DATA     BYTE      S4CON
      000000ACH   SFRSYM    DATA     BYTE      S3CON
      0000009AH   SFRSYM    DATA     BYTE      S2CON
      000000B7H   SFRSYM    DATA     BYTE      IPH
      000000CDH   SFRSYM    DATA     BYTE      SPSTAT
      000000DDH   SFRSYM    DATA     BYTE      T4T3M
      000000C1H   SFRSYM    DATA     BYTE      WDT_CONTR
      000000DFH   SFRSYM    DATA     BYTE      IP3
      000000F4H   SFRSYM    DATA     BYTE      USBCON
      000000B5H   SFRSYM    DATA     BYTE      IP2
      000000FFH   SFRSYM    DATA     BYTE      RSTCFG
      000000C7H   SFRSYM    DATA     BYTE      IAP_CONTR
      000000F9H   SFRSYM    DATA     BYTE      LINICR
      0000008EH   SFRSYM    DATA     BYTE      AUXR
      000000AFH   SFRSYM    DATA     BYTE      IE2
      00000090H.7 SFRSYM    DATA     BIT       P17
      000000A0H.6 SFRSYM    DATA     BIT       P26
      00000090H.6 SFRSYM    DATA     BIT       P16
      000000C8H.1 SFRSYM    DATA     BIT       P51
      00000088H   SFRSYM    DATA     BYTE      TCON
      00000089H   SFRSYM    DATA     BYTE      TMOD
      000000B0H.2 SFRSYM    DATA     BIT       P32
      000000C8H.0 SFRSYM    DATA     BIT       P50
      00000098H   SFRSYM    DATA     BYTE      SCON
      000000F1H   SFRSYM    DATA     BYTE      CANICR
      00000087H   SFRSYM    DATA     BYTE      PCON
      000000BCH   SFRSYM    DATA     BYTE      ADC_CONTR
      000000E7H   SFRSYM    DATA     BYTE      CMPCR2
      000000E6H   SFRSYM    DATA     BYTE      CMPCR1
      000000DEH   SFRSYM    DATA     BYTE      ADCCFG
      000000B8H   SFRSYM    DATA     BYTE      IP
      0000008FH   SFRSYM    DATA     BYTE      INTCLKO
      000000EEH   SFRSYM    DATA     BYTE      IP3H
      000000B6H   SFRSYM    DATA     BYTE      IP2H
L251 LINKER/LOCATER V4.66.93.0                                                        12/27/2024  03:02:31  PAGE 123


      000000A8H   SFRSYM    DATA     BYTE      IE
      000000BBH   SFRSYM    DATA     BYTE      P_SW3
      000000BAH   SFRSYM    DATA     BYTE      P_SW2
      000000A2H   SFRSYM    DATA     BYTE      P_SW1
      000000CEH   SFRSYM    DATA     BYTE      SPCTL
      000000F8H   SFRSYM    DATA     BYTE      P7
      000000E8H   SFRSYM    DATA     BYTE      P6
      000000C8H   SFRSYM    DATA     BYTE      P5
      000000C0H   SFRSYM    DATA     BYTE      P4
      000000B0H   SFRSYM    DATA     BYTE      P3
      000000A0H   SFRSYM    DATA     BYTE      P2
      00000090H   SFRSYM    DATA     BYTE      P1
      00000080H   SFRSYM    DATA     BYTE      P0

      00FF92FDH   BLOCK     CODE     ---       LVL=0
      000019EBH   SYMBOL    EDATA    INT       mode
      00FF9301H   BLOCK     CODE     NEAR LAB  LVL=1
      00000B74H   SYMBOL    EDATA    WORD      key
      ---         BLOCKEND  ---      ---       LVL=1
      00FF92FDH   LINE      CODE     ---       #37
      00FF9301H   LINE      CODE     ---       #38
      00FF9301H   LINE      CODE     ---       #40
      00FF9313H   LINE      CODE     ---       #41
      00FF9343H   LINE      CODE     ---       #43
      00FF934AH   LINE      CODE     ---       #44
      00FF9350H   LINE      CODE     ---       #45
      00FF935FH   LINE      CODE     ---       #46
      00FF936EH   LINE      CODE     ---       #47
      00FF937DH   LINE      CODE     ---       #48
      00FF938CH   LINE      CODE     ---       #50
      00FF93B0H   LINE      CODE     ---       #52
      00FF93B8H   LINE      CODE     ---       #53
      00FF93B8H   LINE      CODE     ---       #54
      00FF93BAH   LINE      CODE     ---       #55
      ---         BLOCKEND  ---      ---       LVL=0
      000016F8H   SYMBOL    EDATA    ---       dArray
      000016FCH   SYMBOL    EDATA    BYTE      value
      000016FDH   SYMBOL    EDATA    ---       newArray
      000014FBH   SYMBOL    EDATA    ---       arr
      000014FFH   SYMBOL    EDATA    INT       size
      00001501H   SYMBOL    EDATA    INT       i
      00001503H   SYMBOL    EDATA    FLOAT     sum
      000015FAH   SYMBOL    EDATA    ---       arr
      000015FEH   SYMBOL    EDATA    INT       size
      00001600H   SYMBOL    EDATA    INT       count
      00001602H   SYMBOL    EDATA    INT       i

      00FF9E61H   BLOCK     CODE     ---       LVL=0
      00001A0BH   SYMBOL    EDATA    CHAR      ccd_offset
      00FF9E61H   LINE      CODE     ---       #100
      00FF9E65H   LINE      CODE     ---       #102
      00FF9E6EH   LINE      CODE     ---       #103
      00FF9E79H   LINE      CODE     ---       #104
      00FF9E79H   LINE      CODE     ---       #105
      00FF9EA8H   LINE      CODE     ---       #107
      00FF9EC1H   LINE      CODE     ---       #109
      ---         BLOCKEND  ---      ---       LVL=0
      00001507H   SYMBOL    EDATA    ---       pid
      0000150BH   SYMBOL    EDATA    FLOAT     temp_val
      0000150FH   SYMBOL    EDATA    FLOAT     increment

      00FF8424H   BLOCK     CODE     ---       LVL=0
      0000179BH   SYMBOL    EDATA    ---       pid
      0000179FH   SYMBOL    EDATA    FLOAT     temp_val
      00FF8424H   LINE      CODE     ---       #146
L251 LINKER/LOCATER V4.66.93.0                                                        12/27/2024  03:02:31  PAGE 124


      00FF842CH   LINE      CODE     ---       #148
      00FF844BH   LINE      CODE     ---       #150
      00FF8473H   LINE      CODE     ---       #152
      00FF848DH   LINE      CODE     ---       #153
      00FF84A4H   LINE      CODE     ---       #154
      00FF84BEH   LINE      CODE     ---       #155
      00FF84D3H   LINE      CODE     ---       #157
      00FF8569H   LINE      CODE     ---       #158
      00FF8587H   LINE      CODE     ---       #159
      00FF8594H   LINE      CODE     ---       #160
      ---         BLOCKEND  ---      ---       LVL=0

      00FF9676H   BLOCK     CODE     ---       LVL=0
      00001923H   SYMBOL    EDATA    ---       pid
      00FF9676H   LINE      CODE     ---       #163
      00FF967AH   LINE      CODE     ---       #165
      00FF9682H   LINE      CODE     ---       #167
      00FF968FH   LINE      CODE     ---       #168
      00FF969EH   LINE      CODE     ---       #169
      00FF96AFH   LINE      CODE     ---       #170
      00FF96C0H   LINE      CODE     ---       #171
      00FF96D1H   LINE      CODE     ---       #172
      00FF96E2H   LINE      CODE     ---       #173
      00FF96F3H   LINE      CODE     ---       #174
      00FF9704H   LINE      CODE     ---       #175
      00FF9715H   LINE      CODE     ---       #176
      ---         BLOCKEND  ---      ---       LVL=0
      0000120DH   SYMBOL    EDATA    FLOAT     actual
      00001211H   SYMBOL    EDATA    FLOAT     set
      00001215H   SYMBOL    EDATA    FLOAT     _p
      00001219H   SYMBOL    EDATA    FLOAT     _d
      00000B76H   SYMBOL    EDATA    FLOAT     last_error
      00000B7AH   SYMBOL    EDATA    FLOAT     last_out_d
      0000121DH   SYMBOL    EDATA    FLOAT     error
      00001221H   SYMBOL    EDATA    FLOAT     out_d
      00001225H   SYMBOL    EDATA    FLOAT     output
      00001927H   SYMBOL    EDATA    FLOAT     value
      00000B7EH   SYMBOL    EDATA    ---       filter_buf

      00FFA50DH   BLOCK     CODE     ---       LVL=0
      0000192BH   SYMBOL    EDATA    INT       a
      0000192DH   SYMBOL    EDATA    INT       b
      00FFA50DH   LINE      CODE     ---       #233
      00FFA515H   LINE      CODE     ---       #234
      00FFA521H   LINE      CODE     ---       #235
      00FFA527H   LINE      CODE     ---       #236
      00FFA527H   LINE      CODE     ---       #237
      00FFA52BH   LINE      CODE     ---       #238
      00FFA52BH   LINE      CODE     ---       #239
      ---         BLOCKEND  ---      ---       LVL=0

      00FF99C6H   BLOCK     CODE     ---       LVL=0
      00001513H   SYMBOL    EDATA    ---       arr
      00001517H   SYMBOL    EDATA    WORD      n
      00FF99CEH   BLOCK     CODE     NEAR LAB  LVL=1
      00001519H   SYMBOL    EDATA    WORD      count
      0000151BH   SYMBOL    EDATA    WORD      max_count
      0000151DH   SYMBOL    EDATA    WORD      i
      ---         BLOCKEND  ---      ---       LVL=1
      00FF99C6H   LINE      CODE     ---       #242
      00FF99CEH   LINE      CODE     ---       #243
      00FF99DAH   LINE      CODE     ---       #244
      00FF99E2H   LINE      CODE     ---       #245
      00FF99F9H   LINE      CODE     ---       #246
      00FF9A07H   LINE      CODE     ---       #247
L251 LINKER/LOCATER V4.66.93.0                                                        12/27/2024  03:02:31  PAGE 125


      00FF9A09H   LINE      CODE     ---       #248
      00FF9A18H   LINE      CODE     ---       #249
      00FF9A1EH   LINE      CODE     ---       #250
      00FF9A1EH   LINE      CODE     ---       #251
      00FF9A38H   LINE      CODE     ---       #252
      00FF9A47H   LINE      CODE     ---       #253
      00FF9A47H   LINE      CODE     ---       #254
      ---         BLOCKEND  ---      ---       LVL=0

      00FF8595H   BLOCK     CODE     ---       LVL=0
      0000192FH   SYMBOL    EDATA    DWORD     count_car_check
      00FF8595H   LINE      CODE     ---       #257
      00FF8595H   LINE      CODE     ---       #258
      00FF859BH   LINE      CODE     ---       #259
      00FF859EH   LINE      CODE     ---       #260
      00FF85B8H   LINE      CODE     ---       #261
      00FF85BEH   LINE      CODE     ---       #262
      00FF85C1H   LINE      CODE     ---       #265
      00FF85E7H   LINE      CODE     ---       #267
      00FF8601H   LINE      CODE     ---       #268
      00FF8607H   LINE      CODE     ---       #269
      00FF860AH   LINE      CODE     ---       #270
      00FF8624H   LINE      CODE     ---       #271
      00FF862AH   LINE      CODE     ---       #272
      00FF862DH   LINE      CODE     ---       #275
      00FF8653H   LINE      CODE     ---       #277
      00FF866DH   LINE      CODE     ---       #278
      00FF8673H   LINE      CODE     ---       #279
      00FF8676H   LINE      CODE     ---       #280
      00FF8690H   LINE      CODE     ---       #281
      00FF8696H   LINE      CODE     ---       #282
      00FF8699H   LINE      CODE     ---       #286
      00FF86B3H   LINE      CODE     ---       #287
      00FF86B9H   LINE      CODE     ---       #288
      00FF86BCH   LINE      CODE     ---       #289
      00FF86D6H   LINE      CODE     ---       #290
      00FF86DCH   LINE      CODE     ---       #291
      00FF86DFH   LINE      CODE     ---       #294
      00FF86FBH   LINE      CODE     ---       #297
      00FF8701H   LINE      CODE     ---       #298
      ---         BLOCKEND  ---      ---       LVL=0
      0000151FH   SYMBOL    EDATA    ---       p1
      00001523H   SYMBOL    EDATA    ---       p2
      00001527H   SYMBOL    EDATA    BYTE      x1
      00001528H   SYMBOL    EDATA    BYTE      y1
      00001529H   SYMBOL    EDATA    BYTE      x2
      0000152AH   SYMBOL    EDATA    BYTE      y2

      00FF8847H   BLOCK     CODE     ---       LVL=0
      00FF8847H   LINE      CODE     ---       #323
      00FF8847H   LINE      CODE     ---       #324
      00FF884AH   LINE      CODE     ---       #325
      00FF884FH   LINE      CODE     ---       #327
      00FF8854H   LINE      CODE     ---       #329
      00FF8860H   LINE      CODE     ---       #330
      00FF886AH   LINE      CODE     ---       #331
      00FF8870H   LINE      CODE     ---       #333
      00FF8877H   LINE      CODE     ---       #334
      00FF887DH   LINE      CODE     ---       #335
      00FF8887H   LINE      CODE     ---       #336
      00FF8891H   LINE      CODE     ---       #337
      00FF8897H   LINE      CODE     ---       #339
      00FF889EH   LINE      CODE     ---       #340
      00FF88A8H   LINE      CODE     ---       #341
      00FF88B4H   LINE      CODE     ---       #342
L251 LINKER/LOCATER V4.66.93.0                                                        12/27/2024  03:02:31  PAGE 126


      00FF88BEH   LINE      CODE     ---       #345
      00FF88C1H   LINE      CODE     ---       #348
      00FF88C6H   LINE      CODE     ---       #351
      00FF88D1H   LINE      CODE     ---       #354
      00FF88DCH   LINE      CODE     ---       #355
      00FF88DFH   LINE      CODE     ---       #357
      00FF88EAH   LINE      CODE     ---       #358
      00FF88EDH   LINE      CODE     ---       #363
      00FF88FEH   LINE      CODE     ---       #365
      00FF890FH   LINE      CODE     ---       #366
      00FF8922H   LINE      CODE     ---       #367
      00FF8933H   LINE      CODE     ---       #368
      00FF8944H   LINE      CODE     ---       #371
      00FF8947H   LINE      CODE     ---       #374
      00FF8949H   LINE      CODE     ---       #375
      00FF8950H   LINE      CODE     ---       #376
      00FF8958H   LINE      CODE     ---       #377
      00FF895EH   LINE      CODE     ---       #378
      00FF8964H   LINE      CODE     ---       #379
      00FF896AH   LINE      CODE     ---       #380
      00FF8970H   LINE      CODE     ---       #381
      00FF8976H   LINE      CODE     ---       #382
      00FF897CH   LINE      CODE     ---       #383
      ---         BLOCKEND  ---      ---       LVL=0

      00FF7042H   BLOCK     CODE     ---       LVL=0
      00FF7042H   LINE      CODE     ---       #467
      00FF7042H   LINE      CODE     ---       #468
      00FF7051H   LINE      CODE     ---       #469
      00FF7074H   LINE      CODE     ---       #471
      00FF7085H   LINE      CODE     ---       #472
      00FF70AAH   LINE      CODE     ---       #474
      00FF70BBH   LINE      CODE     ---       #475
      00FF70D2H   LINE      CODE     ---       #477
      00FF70E3H   LINE      CODE     ---       #478
      00FF70F2H   LINE      CODE     ---       #480
      00FF7103H   LINE      CODE     ---       #481
      00FF7112H   LINE      CODE     ---       #483
      00FF7123H   LINE      CODE     ---       #484
      00FF7132H   LINE      CODE     ---       #486
      00FF7143H   LINE      CODE     ---       #487
      00FF7152H   LINE      CODE     ---       #490
      00FF7163H   LINE      CODE     ---       #491
      00FF7172H   LINE      CODE     ---       #493
      00FF718AH   LINE      CODE     ---       #496
      00FF7196H   LINE      CODE     ---       #497
      00FF719BH   LINE      CODE     ---       #498
      00FF71A7H   LINE      CODE     ---       #499
      00FF71B6H   LINE      CODE     ---       #500
      00FF71B6H   LINE      CODE     ---       #503
      00FF71E2H   LINE      CODE     ---       #505
      00FF71E2H   LINE      CODE     ---       #506
      00FF71FCH   LINE      CODE     ---       #507
      00FF7219H   LINE      CODE     ---       #508
      00FF721CH   LINE      CODE     ---       #510
      00FF721CH   LINE      CODE     ---       #511
      00FF7236H   LINE      CODE     ---       #512
      00FF7253H   LINE      CODE     ---       #513
      00FF7256H   LINE      CODE     ---       #515
      00FF7256H   LINE      CODE     ---       #516
      00FF7275H   LINE      CODE     ---       #517
      00FF7297H   LINE      CODE     ---       #518
      00FF729AH   LINE      CODE     ---       #520
      00FF729AH   LINE      CODE     ---       #521
      00FF72B7H   LINE      CODE     ---       #522
L251 LINKER/LOCATER V4.66.93.0                                                        12/27/2024  03:02:31  PAGE 127


      00FF72D7H   LINE      CODE     ---       #523
      00FF72DAH   LINE      CODE     ---       #525
      00FF72DAH   LINE      CODE     ---       #526
      00FF72F4H   LINE      CODE     ---       #527
      00FF7311H   LINE      CODE     ---       #528
      00FF7314H   LINE      CODE     ---       #530
      00FF7314H   LINE      CODE     ---       #531
      00FF732EH   LINE      CODE     ---       #532
      00FF7348H   LINE      CODE     ---       #533
      00FF734AH   LINE      CODE     ---       #535
      00FF734AH   LINE      CODE     ---       #536
      00FF7364H   LINE      CODE     ---       #537
      00FF737EH   LINE      CODE     ---       #538
      00FF7380H   LINE      CODE     ---       #540
      00FF7380H   LINE      CODE     ---       #541
      00FF739AH   LINE      CODE     ---       #542
      00FF73B4H   LINE      CODE     ---       #543
      00FF73B4H   LINE      CODE     ---       #545
      00FF73B4H   LINE      CODE     ---       #546
      ---         BLOCKEND  ---      ---       LVL=0

      ---         MODULE    ---      ---       buzzer
      000000D0H   SFRSYM    DATA     BYTE      PSW
      0000009DH   SFRSYM    DATA     BYTE      IRCBAND
      00000097H   SFRSYM    DATA     BYTE      AUXR2
      000000EFH   SFRSYM    DATA     BYTE      AUXINTIF
      000000FDH   SFRSYM    DATA     BYTE      S4CON
      000000ACH   SFRSYM    DATA     BYTE      S3CON
      0000009AH   SFRSYM    DATA     BYTE      S2CON
      000000B7H   SFRSYM    DATA     BYTE      IPH
      000000CDH   SFRSYM    DATA     BYTE      SPSTAT
      000000DDH   SFRSYM    DATA     BYTE      T4T3M
      000000C1H   SFRSYM    DATA     BYTE      WDT_CONTR
      000000DFH   SFRSYM    DATA     BYTE      IP3
      000000F4H   SFRSYM    DATA     BYTE      USBCON
      000000B5H   SFRSYM    DATA     BYTE      IP2
      000000FFH   SFRSYM    DATA     BYTE      RSTCFG
      000000C7H   SFRSYM    DATA     BYTE      IAP_CONTR
      000000F9H   SFRSYM    DATA     BYTE      LINICR
      0000008EH   SFRSYM    DATA     BYTE      AUXR
      000000AFH   SFRSYM    DATA     BYTE      IE2
      00000088H   SFRSYM    DATA     BYTE      TCON
      00000089H   SFRSYM    DATA     BYTE      TMOD
      00000098H   SFRSYM    DATA     BYTE      SCON
      000000F1H   SFRSYM    DATA     BYTE      CANICR
      00000087H   SFRSYM    DATA     BYTE      PCON
      000000BCH   SFRSYM    DATA     BYTE      ADC_CONTR
      000000E7H   SFRSYM    DATA     BYTE      CMPCR2
      000000E6H   SFRSYM    DATA     BYTE      CMPCR1
      000000DEH   SFRSYM    DATA     BYTE      ADCCFG
      000000B8H   SFRSYM    DATA     BYTE      IP
      0000008FH   SFRSYM    DATA     BYTE      INTCLKO
      000000EEH   SFRSYM    DATA     BYTE      IP3H
      000000B6H   SFRSYM    DATA     BYTE      IP2H
      000000A8H   SFRSYM    DATA     BYTE      IE
      000000BBH   SFRSYM    DATA     BYTE      P_SW3
      000000BAH   SFRSYM    DATA     BYTE      P_SW2
      000000A2H   SFRSYM    DATA     BYTE      P_SW1
      000000CEH   SFRSYM    DATA     BYTE      SPCTL
      000000F8H   SFRSYM    DATA     BYTE      P7
      000000E8H   SFRSYM    DATA     BYTE      P6
      000000C8H   SFRSYM    DATA     BYTE      P5
      000000C0H   SFRSYM    DATA     BYTE      P4
      000000B0H   SFRSYM    DATA     BYTE      P3
      000000A0H   SFRSYM    DATA     BYTE      P2
L251 LINKER/LOCATER V4.66.93.0                                                        12/27/2024  03:02:31  PAGE 128


      00000090H   SFRSYM    DATA     BYTE      P1
      00000080H   SFRSYM    DATA     BYTE      P0

      ---         MODULE    ---      ---       A_Vofa
      00000008H   PUBLIC    EDATA    ---       vofa_send_data
      000000D0H   SFRSYM    DATA     BYTE      PSW
      0000009DH   SFRSYM    DATA     BYTE      IRCBAND
      00000097H   SFRSYM    DATA     BYTE      AUXR2
      000000EFH   SFRSYM    DATA     BYTE      AUXINTIF
      000000FDH   SFRSYM    DATA     BYTE      S4CON
      000000ACH   SFRSYM    DATA     BYTE      S3CON
      0000009AH   SFRSYM    DATA     BYTE      S2CON
      000000B7H   SFRSYM    DATA     BYTE      IPH
      000000CDH   SFRSYM    DATA     BYTE      SPSTAT
      000000DDH   SFRSYM    DATA     BYTE      T4T3M
      000000C1H   SFRSYM    DATA     BYTE      WDT_CONTR
      000000DFH   SFRSYM    DATA     BYTE      IP3
      000000F4H   SFRSYM    DATA     BYTE      USBCON
      000000B5H   SFRSYM    DATA     BYTE      IP2
      000000FFH   SFRSYM    DATA     BYTE      RSTCFG
      000000C7H   SFRSYM    DATA     BYTE      IAP_CONTR
      000000F9H   SFRSYM    DATA     BYTE      LINICR
      0000008EH   SFRSYM    DATA     BYTE      AUXR
      000000AFH   SFRSYM    DATA     BYTE      IE2
      00000088H   SFRSYM    DATA     BYTE      TCON
      00000089H   SFRSYM    DATA     BYTE      TMOD
      00000098H   SFRSYM    DATA     BYTE      SCON
      000000F1H   SFRSYM    DATA     BYTE      CANICR
      00000087H   SFRSYM    DATA     BYTE      PCON
      000000BCH   SFRSYM    DATA     BYTE      ADC_CONTR
      000000E7H   SFRSYM    DATA     BYTE      CMPCR2
      000000E6H   SFRSYM    DATA     BYTE      CMPCR1
      000000DEH   SFRSYM    DATA     BYTE      ADCCFG
      000000B8H   SFRSYM    DATA     BYTE      IP
      0000008FH   SFRSYM    DATA     BYTE      INTCLKO
      000000EEH   SFRSYM    DATA     BYTE      IP3H
      000000B6H   SFRSYM    DATA     BYTE      IP2H
      000000A8H   SFRSYM    DATA     BYTE      IE
      000000BBH   SFRSYM    DATA     BYTE      P_SW3
      000000BAH   SFRSYM    DATA     BYTE      P_SW2
      000000A2H   SFRSYM    DATA     BYTE      P_SW1
      000000CEH   SFRSYM    DATA     BYTE      SPCTL
      000000F8H   SFRSYM    DATA     BYTE      P7
      000000E8H   SFRSYM    DATA     BYTE      P6
      000000C8H   SFRSYM    DATA     BYTE      P5
      000000C0H   SFRSYM    DATA     BYTE      P4
      000000B0H   SFRSYM    DATA     BYTE      P3
      000000A0H   SFRSYM    DATA     BYTE      P2
      00000090H   SFRSYM    DATA     BYTE      P1
      00000080H   SFRSYM    DATA     BYTE      P0
      00FFB360H   SYMBOL    HCONST   ---       ?tpl?0001
      00FFB364H   SYMBOL    HCONST   ---       ?tpl?0002
      0000152BH   SYMBOL    EDATA    FLOAT     f
      0000152FH   SYMBOL    EDATA    ---       byte
      00001533H   SYMBOL    EDATA    ---       fl
      0000137CH   SYMBOL    EDATA    ---       data_str
      00001380H   SYMBOL    EDATA    WORD      num
      00001382H   SYMBOL    EDATA    BYTE      i
      00001383H   SYMBOL    EDATA    ---       byte
      00001387H   SYMBOL    EDATA    ---       tail

      ---         MODULE    ---      ---       inertia
      00FF98BFH   PUBLIC    CODE     ---       get_inertia_offset
      00FF9AC8H   PUBLIC    CODE     ---       get_target_yaw_cross_cricle
      00FF9B44H   PUBLIC    CODE     ---       yaw_error
L251 LINKER/LOCATER V4.66.93.0                                                        12/27/2024  03:02:31  PAGE 129


      00FFA664H   PUBLIC    CODE     ---       get_target_yaw
      00000DEAH   PUBLIC    EDATA    CHAR      offset_keep_flag
      00000DEBH   PUBLIC    EDATA    CHAR      offset_keep
      00000DECH   PUBLIC    EDATA    FLOAT     offset_r_d
      00000DF0H   PUBLIC    EDATA    FLOAT     turn_pro_yaw
      00000DF4H   PUBLIC    EDATA    FLOAT     offset_r_x
      00000DF8H   PUBLIC    EDATA    FLOAT     target_yaw
      00000DFCH   PUBLIC    EDATA    FLOAT     yaw
      00000E00H   PUBLIC    EDATA    FLOAT     offset_r
      00000E04H   PUBLIC    EDATA    FLOAT     X_acc
      00000E08H   PUBLIC    EDATA    FLOAT     Y_acc
      00000E0CH   PUBLIC    EDATA    FLOAT     Z_acc
      00000E10H   PUBLIC    EDATA    BYTE      flag_turn_pro
      00000E11H   PUBLIC    EDATA    BYTE      turn_pro_flag
      00000E12H   PUBLIC    EDATA    FLOAT     X_gyro
      00000E16H   PUBLIC    EDATA    FLOAT     Y_gyro
      00000E1AH   PUBLIC    EDATA    FLOAT     Z_gyro
      000000D0H   SFRSYM    DATA     BYTE      PSW
      0000009DH   SFRSYM    DATA     BYTE      IRCBAND
      00000097H   SFRSYM    DATA     BYTE      AUXR2
      000000EFH   SFRSYM    DATA     BYTE      AUXINTIF
      000000FDH   SFRSYM    DATA     BYTE      S4CON
      000000ACH   SFRSYM    DATA     BYTE      S3CON
      0000009AH   SFRSYM    DATA     BYTE      S2CON
      000000B7H   SFRSYM    DATA     BYTE      IPH
      000000CDH   SFRSYM    DATA     BYTE      SPSTAT
      000000DDH   SFRSYM    DATA     BYTE      T4T3M
      000000C1H   SFRSYM    DATA     BYTE      WDT_CONTR
      000000DFH   SFRSYM    DATA     BYTE      IP3
      000000F4H   SFRSYM    DATA     BYTE      USBCON
      000000B5H   SFRSYM    DATA     BYTE      IP2
      000000FFH   SFRSYM    DATA     BYTE      RSTCFG
      000000C7H   SFRSYM    DATA     BYTE      IAP_CONTR
      000000F9H   SFRSYM    DATA     BYTE      LINICR
      0000008EH   SFRSYM    DATA     BYTE      AUXR
      000000AFH   SFRSYM    DATA     BYTE      IE2
      00000088H   SFRSYM    DATA     BYTE      TCON
      00000089H   SFRSYM    DATA     BYTE      TMOD
      00000098H   SFRSYM    DATA     BYTE      SCON
      000000F1H   SFRSYM    DATA     BYTE      CANICR
      00000087H   SFRSYM    DATA     BYTE      PCON
      000000BCH   SFRSYM    DATA     BYTE      ADC_CONTR
      000000E7H   SFRSYM    DATA     BYTE      CMPCR2
      000000E6H   SFRSYM    DATA     BYTE      CMPCR1
      000000DEH   SFRSYM    DATA     BYTE      ADCCFG
      000000B8H   SFRSYM    DATA     BYTE      IP
      0000008FH   SFRSYM    DATA     BYTE      INTCLKO
      000000EEH   SFRSYM    DATA     BYTE      IP3H
      000000B6H   SFRSYM    DATA     BYTE      IP2H
      000000A8H   SFRSYM    DATA     BYTE      IE
      000000BBH   SFRSYM    DATA     BYTE      P_SW3
      000000BAH   SFRSYM    DATA     BYTE      P_SW2
      000000A2H   SFRSYM    DATA     BYTE      P_SW1
      000000CEH   SFRSYM    DATA     BYTE      SPCTL
      000000F8H   SFRSYM    DATA     BYTE      P7
      000000E8H   SFRSYM    DATA     BYTE      P6
      000000C8H   SFRSYM    DATA     BYTE      P5
      000000C0H   SFRSYM    DATA     BYTE      P4
      000000B0H   SFRSYM    DATA     BYTE      P3
      000000A0H   SFRSYM    DATA     BYTE      P2
      00000090H   SFRSYM    DATA     BYTE      P1
      00000080H   SFRSYM    DATA     BYTE      P0

      00FF98BFH   BLOCK     CODE     ---       LVL=0
      000019EDH   SYMBOL    EDATA    INT       temp_offset
L251 LINKER/LOCATER V4.66.93.0                                                        12/27/2024  03:02:31  PAGE 130


      00FF98BFH   LINE      CODE     ---       #21
      00FF98BFH   LINE      CODE     ---       #22
      00FF98C5H   LINE      CODE     ---       #23
      00FF98D7H   LINE      CODE     ---       #24
      00FF98E3H   LINE      CODE     ---       #25
      00FF98F1H   LINE      CODE     ---       #26
      00FF98FFH   LINE      CODE     ---       #27
      00FF990DH   LINE      CODE     ---       #28
      00FF990DH   LINE      CODE     ---       #30
      00FF9919H   LINE      CODE     ---       #31
      00FF9921H   LINE      CODE     ---       #32
      00FF992FH   LINE      CODE     ---       #33
      00FF9937H   LINE      CODE     ---       #34
      00FF9937H   LINE      CODE     ---       #35
      00FF9942H   LINE      CODE     ---       #36
      ---         BLOCKEND  ---      ---       LVL=0

      00FF9B44H   BLOCK     CODE     ---       LVL=0
      00001701H   SYMBOL    EDATA    FLOAT     yaw_angle
      00001705H   SYMBOL    EDATA    BYTE      mode
      00FF9B4CH   BLOCK     CODE     NEAR LAB  LVL=1
      00001706H   SYMBOL    EDATA    FLOAT     error
      ---         BLOCKEND  ---      ---       LVL=1
      00FF9B44H   LINE      CODE     ---       #40
      00FF9B4CH   LINE      CODE     ---       #41
      00FF9B52H   LINE      CODE     ---       #42
      00FF9B5BH   LINE      CODE     ---       #43
      00FF9B6AH   LINE      CODE     ---       #44
      00FF9B6CH   LINE      CODE     ---       #45
      00FF9B7BH   LINE      CODE     ---       #46
      00FF9B7BH   LINE      CODE     ---       #49
      00FF9B8AH   LINE      CODE     ---       #50
      00FF9B9BH   LINE      CODE     ---       #51
      00FF9BA8H   LINE      CODE     ---       #52
      00FF9BB9H   LINE      CODE     ---       #53
      00FF9BB9H   LINE      CODE     ---       #54
      00FF9BBDH   LINE      CODE     ---       #55
      ---         BLOCKEND  ---      ---       LVL=0

      00FF9AC8H   BLOCK     CODE     ---       LVL=0
      00001A0CH   SYMBOL    EDATA    CHAR      mode
      00FF9AC8H   LINE      CODE     ---       #59
      00FF9ACCH   LINE      CODE     ---       #60
      00FF9AD1H   LINE      CODE     ---       #61
      00FF9AD9H   LINE      CODE     ---       #62
      00FF9AEAH   LINE      CODE     ---       #63
      00FF9AECH   LINE      CODE     ---       #64
      00FF9AF4H   LINE      CODE     ---       #65
      00FF9B05H   LINE      CODE     ---       #66
      00FF9B05H   LINE      CODE     ---       #68
      00FF9B14H   LINE      CODE     ---       #69
      00FF9B25H   LINE      CODE     ---       #70
      00FF9B32H   LINE      CODE     ---       #71
      00FF9B43H   LINE      CODE     ---       #72
      ---         BLOCKEND  ---      ---       LVL=0

      00FFA664H   BLOCK     CODE     ---       LVL=0
      00FFA664H   LINE      CODE     ---       #75
      00FFA664H   LINE      CODE     ---       #104
      00FFA66CH   LINE      CODE     ---       #111
      ---         BLOCKEND  ---      ---       LVL=0

      ---         MODULE    ---      ---       circle
      00FF405AH   PUBLIC    CODE     ---       cricle_proccess
      00FF807FH   PUBLIC    CODE     ---       cross_cricle_proccess
L251 LINKER/LOCATER V4.66.93.0                                                        12/27/2024  03:02:31  PAGE 131


      00001178H   PUBLIC    EDATA    BYTE      circle_big_flag
      00001179H   PUBLIC    EDATA    WORD      distance_cross_saw
      0000117BH   PUBLIC    EDATA    FLOAT     circle_begin_yaw
      0000117FH   PUBLIC    EDATA    BYTE      circle_size
      00001180H   PUBLIC    EDATA    FLOAT     circle_yaw_error
      00001184H   PUBLIC    EDATA    FLOAT     cross_circle_yaw
      00001188H   PUBLIC    EDATA    INT       count_big
      0000118AH   PUBLIC    EDATA    INT       circle_flag_in_cnt
      0000118CH   PUBLIC    EDATA    INT       circle_flag_out_cnt
      0000118EH   PUBLIC    EDATA    FLOAT     circle_in_yaw
      00001192H   PUBLIC    EDATA    BYTE      circle_small
      00001193H   PUBLIC    EDATA    WORD      distance_saw
      00001195H   PUBLIC    EDATA    INT       tiaocang_num
      000000D0H   SFRSYM    DATA     BYTE      PSW
      0000009DH   SFRSYM    DATA     BYTE      IRCBAND
      00000097H   SFRSYM    DATA     BYTE      AUXR2
      000000EFH   SFRSYM    DATA     BYTE      AUXINTIF
      000000FDH   SFRSYM    DATA     BYTE      S4CON
      000000ACH   SFRSYM    DATA     BYTE      S3CON
      0000009AH   SFRSYM    DATA     BYTE      S2CON
      000000B7H   SFRSYM    DATA     BYTE      IPH
      000000CDH   SFRSYM    DATA     BYTE      SPSTAT
      000000DDH   SFRSYM    DATA     BYTE      T4T3M
      000000C1H   SFRSYM    DATA     BYTE      WDT_CONTR
      000000DFH   SFRSYM    DATA     BYTE      IP3
      000000F4H   SFRSYM    DATA     BYTE      USBCON
      000000B5H   SFRSYM    DATA     BYTE      IP2
      000000FFH   SFRSYM    DATA     BYTE      RSTCFG
      000000C7H   SFRSYM    DATA     BYTE      IAP_CONTR
      000000F9H   SFRSYM    DATA     BYTE      LINICR
      0000008EH   SFRSYM    DATA     BYTE      AUXR
      000000AFH   SFRSYM    DATA     BYTE      IE2
      00000088H   SFRSYM    DATA     BYTE      TCON
      00000089H   SFRSYM    DATA     BYTE      TMOD
      000000B0H.2 SFRSYM    DATA     BIT       P32
      00000098H   SFRSYM    DATA     BYTE      SCON
      000000F1H   SFRSYM    DATA     BYTE      CANICR
      00000087H   SFRSYM    DATA     BYTE      PCON
      000000BCH   SFRSYM    DATA     BYTE      ADC_CONTR
      000000E7H   SFRSYM    DATA     BYTE      CMPCR2
      000000E6H   SFRSYM    DATA     BYTE      CMPCR1
      000000DEH   SFRSYM    DATA     BYTE      ADCCFG
      000000B8H   SFRSYM    DATA     BYTE      IP
      0000008FH   SFRSYM    DATA     BYTE      INTCLKO
      000000EEH   SFRSYM    DATA     BYTE      IP3H
      000000B6H   SFRSYM    DATA     BYTE      IP2H
      000000A8H   SFRSYM    DATA     BYTE      IE
      000000BBH   SFRSYM    DATA     BYTE      P_SW3
      000000BAH   SFRSYM    DATA     BYTE      P_SW2
      000000A2H   SFRSYM    DATA     BYTE      P_SW1
      000000CEH   SFRSYM    DATA     BYTE      SPCTL
      000000F8H   SFRSYM    DATA     BYTE      P7
      000000E8H   SFRSYM    DATA     BYTE      P6
      000000C8H   SFRSYM    DATA     BYTE      P5
      000000C0H   SFRSYM    DATA     BYTE      P4
      000000B0H   SFRSYM    DATA     BYTE      P3
      000000A0H   SFRSYM    DATA     BYTE      P2
      00000090H   SFRSYM    DATA     BYTE      P1
      00000080H   SFRSYM    DATA     BYTE      P0

      00FF807FH   BLOCK     CODE     ---       LVL=0
      00FF807FH   LINE      CODE     ---       #28
      00FF807FH   LINE      CODE     ---       #30
      00FF809BH   LINE      CODE     ---       #32
      00FF80C3H   LINE      CODE     ---       #33
L251 LINKER/LOCATER V4.66.93.0                                                        12/27/2024  03:02:31  PAGE 132


      00FF80CBH   LINE      CODE     ---       #35
      00FF80D1H   LINE      CODE     ---       #36
      00FF80D9H   LINE      CODE     ---       #37
      00FF80E1H   LINE      CODE     ---       #38
      00FF80E1H   LINE      CODE     ---       #40
      00FF810DH   LINE      CODE     ---       #41
      00FF8115H   LINE      CODE     ---       #43
      00FF811BH   LINE      CODE     ---       #44
      00FF8123H   LINE      CODE     ---       #45
      00FF812BH   LINE      CODE     ---       #46
      00FF812EH   LINE      CODE     ---       #51
      00FF813AH   LINE      CODE     ---       #52
      00FF8142H   LINE      CODE     ---       #53
      00FF817AH   LINE      CODE     ---       #55
      00FF817EH   LINE      CODE     ---       #56
      00FF8186H   LINE      CODE     ---       #58
      00FF818CH   LINE      CODE     ---       #59
      00FF8192H   LINE      CODE     ---       #60
      00FF8195H   LINE      CODE     ---       #63
      00FF81A1H   LINE      CODE     ---       #64
      00FF81A9H   LINE      CODE     ---       #65
      00FF81DFH   LINE      CODE     ---       #67
      00FF81E4H   LINE      CODE     ---       #68
      00FF81ECH   LINE      CODE     ---       #70
      00FF81F2H   LINE      CODE     ---       #71
      00FF81F8H   LINE      CODE     ---       #72
      00FF81FAH   LINE      CODE     ---       #77
      00FF8206H   LINE      CODE     ---       #78
      00FF820EH   LINE      CODE     ---       #79
      00FF8216H   LINE      CODE     ---       #80
      00FF8222H   LINE      CODE     ---       #81
      00FF8228H   LINE      CODE     ---       #82
      00FF822EH   LINE      CODE     ---       #84
      00FF8236H   LINE      CODE     ---       #85
      00FF8238H   LINE      CODE     ---       #87
      00FF824CH   LINE      CODE     ---       #89
      00FF8252H   LINE      CODE     ---       #90
      00FF8258H   LINE      CODE     ---       #92
      00FF8260H   LINE      CODE     ---       #93
      ---         BLOCKEND  ---      ---       LVL=0

      00FF405AH   BLOCK     CODE     ---       LVL=0
      00FF405AH   LINE      CODE     ---       #97
      00FF405AH   LINE      CODE     ---       #103
      00FF40E8H   LINE      CODE     ---       #110
      00FF40EEH   LINE      CODE     ---       #111
      00FF40F6H   LINE      CODE     ---       #112
      00FF40FBH   LINE      CODE     ---       #113
      00FF40FEH   LINE      CODE     ---       #116
      00FF410AH   LINE      CODE     ---       #124
      00FF4112H   LINE      CODE     ---       #127
      00FF411CH   LINE      CODE     ---       #130
      00FF4124H   LINE      CODE     ---       #131
      00FF412CH   LINE      CODE     ---       #132
      00FF4134H   LINE      CODE     ---       #133
      00FF413CH   LINE      CODE     ---       #134
      00FF413CH   LINE      CODE     ---       #136
      00FF414CH   LINE      CODE     ---       #137
      00FF414FH   LINE      CODE     ---       #139
      00FF415EH   LINE      CODE     ---       #143
      00FF416BH   LINE      CODE     ---       #146
      00FF4185H   LINE      CODE     ---       #147
      00FF41A1H   LINE      CODE     ---       #150
      00FF41CFH   LINE      CODE     ---       #151
      00FF41D7H   LINE      CODE     ---       #152
L251 LINKER/LOCATER V4.66.93.0                                                        12/27/2024  03:02:31  PAGE 133


      00FF41DCH   LINE      CODE     ---       #153
      00FF41E1H   LINE      CODE     ---       #155
      00FF41E4H   LINE      CODE     ---       #164
      00FF41F3H   LINE      CODE     ---       #166
      00FF4200H   LINE      CODE     ---       #169
      00FF4223H   LINE      CODE     ---       #171
      00FF422FH   LINE      CODE     ---       #172
      00FF4246H   LINE      CODE     ---       #173
      00FF424BH   LINE      CODE     ---       #175
      00FF4253H   LINE      CODE     ---       #176
      00FF4256H   LINE      CODE     ---       #179
      00FF426DH   LINE      CODE     ---       #180
      00FF427DH   LINE      CODE     ---       #181
      00FF4282H   LINE      CODE     ---       #183
      00FF428AH   LINE      CODE     ---       #184
      00FF428AH   LINE      CODE     ---       #188
      00FF428DH   LINE      CODE     ---       #192
      00FF429CH   LINE      CODE     ---       #195
      00FF42A9H   LINE      CODE     ---       #196
      00FF42B1H   LINE      CODE     ---       #197
      00FF42B6H   LINE      CODE     ---       #206
      00FF42BEH   LINE      CODE     ---       #209
      00FF42F8H   LINE      CODE     ---       #211
      00FF4332H   LINE      CODE     ---       #230
      00FF438EH   LINE      CODE     ---       #232
      00FF4391H   LINE      CODE     ---       #234
      00FF4396H   LINE      CODE     ---       #235
      00FF439BH   LINE      CODE     ---       #236
      00FF43A1H   LINE      CODE     ---       #237
      00FF43A6H   LINE      CODE     ---       #238
      00FF43ABH   LINE      CODE     ---       #239
      00FF43B0H   LINE      CODE     ---       #240
      00FF43B5H   LINE      CODE     ---       #241
      00FF43BBH   LINE      CODE     ---       #242
      00FF43C1H   LINE      CODE     ---       #243
      00FF43C7H   LINE      CODE     ---       #244
      00FF43CFH   LINE      CODE     ---       #245
      00FF43CFH   LINE      CODE     ---       #248
      00FF440FH   LINE      CODE     ---       #250
      00FF4412H   LINE      CODE     ---       #252
      00FF4417H   LINE      CODE     ---       #253
      00FF441CH   LINE      CODE     ---       #254
      00FF4422H   LINE      CODE     ---       #255
      00FF4427H   LINE      CODE     ---       #256
      00FF442CH   LINE      CODE     ---       #257
      00FF4431H   LINE      CODE     ---       #258
      00FF4436H   LINE      CODE     ---       #259
      00FF443CH   LINE      CODE     ---       #260
      00FF4442H   LINE      CODE     ---       #261
      00FF4448H   LINE      CODE     ---       #262
      00FF4450H   LINE      CODE     ---       #263
      00FF4450H   LINE      CODE     ---       #271
      00FF44B9H   LINE      CODE     ---       #278
      00FF44BFH   LINE      CODE     ---       #279
      00FF44C7H   LINE      CODE     ---       #280
      00FF44CCH   LINE      CODE     ---       #282
      00FF44CFH   LINE      CODE     ---       #285
      00FF44DBH   LINE      CODE     ---       #293
      00FF44E3H   LINE      CODE     ---       #296
      00FF44EDH   LINE      CODE     ---       #300
      00FF44F5H   LINE      CODE     ---       #301
      00FF44FDH   LINE      CODE     ---       #302
      00FF4505H   LINE      CODE     ---       #303
      00FF450DH   LINE      CODE     ---       #305
      00FF450DH   LINE      CODE     ---       #307
L251 LINKER/LOCATER V4.66.93.0                                                        12/27/2024  03:02:31  PAGE 134


      00FF451DH   LINE      CODE     ---       #308
      00FF4520H   LINE      CODE     ---       #310
      00FF452CH   LINE      CODE     ---       #315
      00FF4539H   LINE      CODE     ---       #318
      00FF455FH   LINE      CODE     ---       #319
      00FF4567H   LINE      CODE     ---       #320
      00FF456CH   LINE      CODE     ---       #321
      00FF4571H   LINE      CODE     ---       #323
      00FF4571H   LINE      CODE     ---       #325
      00FF4581H   LINE      CODE     ---       #328
      00FF4584H   LINE      CODE     ---       #333
      00FF4590H   LINE      CODE     ---       #335
      00FF459CH   LINE      CODE     ---       #338
      00FF45AFH   LINE      CODE     ---       #340
      00FF45B4H   LINE      CODE     ---       #342
      00FF45BCH   LINE      CODE     ---       #343
      00FF45BCH   LINE      CODE     ---       #344
      00FF45CCH   LINE      CODE     ---       #346
      00FF45CFH   LINE      CODE     ---       #349
      00FF45DEH   LINE      CODE     ---       #352
      00FF45EAH   LINE      CODE     ---       #354
      00FF45FDH   LINE      CODE     ---       #357
      00FF4611H   LINE      CODE     ---       #358
      00FF4623H   LINE      CODE     ---       #360
      00FF4629H   LINE      CODE     ---       #361
      00FF462FH   LINE      CODE     ---       #362
      00FF462FH   LINE      CODE     ---       #363
      00FF4638H   LINE      CODE     ---       #365
      00FF463BH   LINE      CODE     ---       #369
      00FF4673H   LINE      CODE     ---       #370
      00FF46B1H   LINE      CODE     ---       #375
      00FF46B4H   LINE      CODE     ---       #377
      00FF46C0H   LINE      CODE     ---       #379
      00FF46C3H   LINE      CODE     ---       #381
      00FF46C8H   LINE      CODE     ---       #382
      00FF46CDH   LINE      CODE     ---       #384
      00FF46D2H   LINE      CODE     ---       #385
      00FF46D7H   LINE      CODE     ---       #386
      00FF46DCH   LINE      CODE     ---       #388
      00FF46ECH   LINE      CODE     ---       #390
      00FF46FCH   LINE      CODE     ---       #393
      00FF471BH   LINE      CODE     ---       #396
      00FF4720H   LINE      CODE     ---       #397
      00FF4725H   LINE      CODE     ---       #398
      00FF472BH   LINE      CODE     ---       #399
      00FF4730H   LINE      CODE     ---       #400
      00FF4735H   LINE      CODE     ---       #401
      00FF473AH   LINE      CODE     ---       #402
      00FF473FH   LINE      CODE     ---       #403
      00FF4745H   LINE      CODE     ---       #404
      00FF474BH   LINE      CODE     ---       #405
      00FF4751H   LINE      CODE     ---       #406
      00FF4757H   LINE      CODE     ---       #407
      00FF475DH   LINE      CODE     ---       #408
      00FF475DH   LINE      CODE     ---       #411
      00FF475DH   LINE      CODE     ---       #412
      ---         BLOCKEND  ---      ---       LVL=0

      ---         MODULE    ---      ---       seekfree_assistant
      00000870H   PUBLIC    EDATA    ---       seekfree_assistant_oscilloscope_data
      000008ABH   PUBLIC    EDATA    ---       seekfree_assistant_parameter_update_flag
      000008B3H   PUBLIC    EDATA    ---       seekfree_assistant_parameter
      0000138BH   PUBLIC    EDATA    BYTE      ?seekfree_assistant_camera_data_send?BYTE
      00001604H   PUBLIC    EDATA    BYTE      ?seekfree_assistant_camera_information_config?BYTE
      00001197H   PUBLIC    EDATA    BYTE      ?seekfree_assistant_camera_boundary_config?BYTE
L251 LINKER/LOCATER V4.66.93.0                                                        12/27/2024  03:02:31  PAGE 135


      000000D0H   SFRSYM    DATA     BYTE      PSW
      0000009DH   SFRSYM    DATA     BYTE      IRCBAND
      00000097H   SFRSYM    DATA     BYTE      AUXR2
      000000EFH   SFRSYM    DATA     BYTE      AUXINTIF
      000000FDH   SFRSYM    DATA     BYTE      S4CON
      000000ACH   SFRSYM    DATA     BYTE      S3CON
      0000009AH   SFRSYM    DATA     BYTE      S2CON
      000000B7H   SFRSYM    DATA     BYTE      IPH
      000000CDH   SFRSYM    DATA     BYTE      SPSTAT
      000000DDH   SFRSYM    DATA     BYTE      T4T3M
      000000C1H   SFRSYM    DATA     BYTE      WDT_CONTR
      000000DFH   SFRSYM    DATA     BYTE      IP3
      000000F4H   SFRSYM    DATA     BYTE      USBCON
      000000B5H   SFRSYM    DATA     BYTE      IP2
      000000FFH   SFRSYM    DATA     BYTE      RSTCFG
      000000C7H   SFRSYM    DATA     BYTE      IAP_CONTR
      000000F9H   SFRSYM    DATA     BYTE      LINICR
      0000008EH   SFRSYM    DATA     BYTE      AUXR
      000000AFH   SFRSYM    DATA     BYTE      IE2
      00000088H   SFRSYM    DATA     BYTE      TCON
      00000089H   SFRSYM    DATA     BYTE      TMOD
      00000098H   SFRSYM    DATA     BYTE      SCON
      000000F1H   SFRSYM    DATA     BYTE      CANICR
      00000087H   SFRSYM    DATA     BYTE      PCON
      000000BCH   SFRSYM    DATA     BYTE      ADC_CONTR
      000000E7H   SFRSYM    DATA     BYTE      CMPCR2
      000000E6H   SFRSYM    DATA     BYTE      CMPCR1
      000000DEH   SFRSYM    DATA     BYTE      ADCCFG
      000000B8H   SFRSYM    DATA     BYTE      IP
      0000008FH   SFRSYM    DATA     BYTE      INTCLKO
      000000EEH   SFRSYM    DATA     BYTE      IP3H
      000000B6H   SFRSYM    DATA     BYTE      IP2H
      000000A8H   SFRSYM    DATA     BYTE      IE
      000000BBH   SFRSYM    DATA     BYTE      P_SW3
      000000BAH   SFRSYM    DATA     BYTE      P_SW2
      000000A2H   SFRSYM    DATA     BYTE      P_SW1
      000000CEH   SFRSYM    DATA     BYTE      SPCTL
      000000F8H   SFRSYM    DATA     BYTE      P7
      000000E8H   SFRSYM    DATA     BYTE      P6
      000000C8H   SFRSYM    DATA     BYTE      P5
      000000C0H   SFRSYM    DATA     BYTE      P4
      000000B0H   SFRSYM    DATA     BYTE      P3
      000000A0H   SFRSYM    DATA     BYTE      P2
      00000090H   SFRSYM    DATA     BYTE      P1
      00000080H   SFRSYM    DATA     BYTE      P0
      00000868H   SYMBOL    EDATA    ---       seekfree_assistant_camera_dot_data
      00000894H   SYMBOL    EDATA    ---       seekfree_assistant_fifo
      000008D3H   SYMBOL    EDATA    ---       seekfree_assistant_camera_buffer
      0000091DH   SYMBOL    EDATA    ---       seekfree_assistant_camera_data
      00000925H   SYMBOL    EDATA    ---       seekfree_assistant_buffer
      0000170AH   SYMBOL    EDATA    ---       buffer
      0000170EH   SYMBOL    EDATA    DWORD     length
      00001712H   SYMBOL    EDATA    BYTE      temp_sum
      0000138BH   SYMBOL    EDATA    INT       camera_type
      0000138DH   SYMBOL    EDATA    ---       image_addr
      00001391H   SYMBOL    EDATA    BYTE      boundary_num
      00001392H   SYMBOL    EDATA    WORD      width
      00001394H   SYMBOL    EDATA    WORD      height
      00001396H   SYMBOL    EDATA    DWORD     image_size
      00001604H   SYMBOL    EDATA    INT       camera_type
      00001606H   SYMBOL    EDATA    ---       image_addr
      0000160AH   SYMBOL    EDATA    WORD      width
      0000160CH   SYMBOL    EDATA    WORD      height
      0000109FH   SYMBOL    EDATA    ---       seekfree_assistant_oscilloscope
      000010A3H   SYMBOL    EDATA    BYTE      packet_size
L251 LINKER/LOCATER V4.66.93.0                                                        12/27/2024  03:02:31  PAGE 136


      000010A4H   SYMBOL    EDATA    BYTE      i
      000010A5H   SYMBOL    EDATA    ---       temp_oscilloscope
      000017D4H   SYMBOL    EDATA    ---       buffer
      000017D8H   SYMBOL    EDATA    BYTE      i
      000017D9H   SYMBOL    EDATA    WORD      dot_bytes
      00001197H   SYMBOL    EDATA    INT       boundary_type
      00001199H   SYMBOL    EDATA    WORD      dot_num
      0000119BH   SYMBOL    EDATA    ---       dot_x1
      0000119FH   SYMBOL    EDATA    ---       dot_x2
      000011A3H   SYMBOL    EDATA    ---       dot_x3
      000011A7H   SYMBOL    EDATA    ---       dot_y1
      000011ABH   SYMBOL    EDATA    ---       dot_y2
      000011AFH   SYMBOL    EDATA    ---       dot_y3
      000011B3H   SYMBOL    EDATA    BYTE      i
      000011B4H   SYMBOL    EDATA    BYTE      boundary_num
      000011B5H   SYMBOL    EDATA    BYTE      boundary_data_type
      00000B8AH   SYMBOL    EDATA    BYTE      temp_sum
      00000B8BH   SYMBOL    EDATA    DWORD     read_length
      00000B8FH   SYMBOL    EDATA    ---       receive_packet
      00000B93H   SYMBOL    EDATA    ---       temp_buffer
      00000C13H   SYMBOL    EDATA    DWORD     i

      ---         MODULE    ---      ---       seekfree_assistant_inface
      00001933H   PUBLIC    EDATA    ---       seekfree_assistant_receive
      00001935H   PUBLIC    EDATA    ---       seekfree_assistant_transfer
      000000D0H   SFRSYM    DATA     BYTE      PSW
      0000009DH   SFRSYM    DATA     BYTE      IRCBAND
      00000097H   SFRSYM    DATA     BYTE      AUXR2
      000000EFH   SFRSYM    DATA     BYTE      AUXINTIF
      000000FDH   SFRSYM    DATA     BYTE      S4CON
      000000ACH   SFRSYM    DATA     BYTE      S3CON
      0000009AH   SFRSYM    DATA     BYTE      S2CON
      000000B7H   SFRSYM    DATA     BYTE      IPH
      000000CDH   SFRSYM    DATA     BYTE      SPSTAT
      000000DDH   SFRSYM    DATA     BYTE      T4T3M
      000000C1H   SFRSYM    DATA     BYTE      WDT_CONTR
      000000DFH   SFRSYM    DATA     BYTE      IP3
      000000F4H   SFRSYM    DATA     BYTE      USBCON
      000000B5H   SFRSYM    DATA     BYTE      IP2
      000000FFH   SFRSYM    DATA     BYTE      RSTCFG
      000000C7H   SFRSYM    DATA     BYTE      IAP_CONTR
      000000F9H   SFRSYM    DATA     BYTE      LINICR
      0000008EH   SFRSYM    DATA     BYTE      AUXR
      000000AFH   SFRSYM    DATA     BYTE      IE2
      00000088H   SFRSYM    DATA     BYTE      TCON
      00000089H   SFRSYM    DATA     BYTE      TMOD
      00000098H   SFRSYM    DATA     BYTE      SCON
      000000F1H   SFRSYM    DATA     BYTE      CANICR
      00000087H   SFRSYM    DATA     BYTE      PCON
      000000BCH   SFRSYM    DATA     BYTE      ADC_CONTR
      000000E7H   SFRSYM    DATA     BYTE      CMPCR2
      000000E6H   SFRSYM    DATA     BYTE      CMPCR1
      000000DEH   SFRSYM    DATA     BYTE      ADCCFG
      000000B8H   SFRSYM    DATA     BYTE      IP
      0000008FH   SFRSYM    DATA     BYTE      INTCLKO
      000000EEH   SFRSYM    DATA     BYTE      IP3H
      000000B6H   SFRSYM    DATA     BYTE      IP2H
      000000A8H   SFRSYM    DATA     BYTE      IE
      000000BBH   SFRSYM    DATA     BYTE      P_SW3
      000000BAH   SFRSYM    DATA     BYTE      P_SW2
      000000A2H   SFRSYM    DATA     BYTE      P_SW1
      000000CEH   SFRSYM    DATA     BYTE      SPCTL
      000000F8H   SFRSYM    DATA     BYTE      P7
      000000E8H   SFRSYM    DATA     BYTE      P6
      000000C8H   SFRSYM    DATA     BYTE      P5
L251 LINKER/LOCATER V4.66.93.0                                                        12/27/2024  03:02:31  PAGE 137


      000000C0H   SFRSYM    DATA     BYTE      P4
      000000B0H   SFRSYM    DATA     BYTE      P3
      000000A0H   SFRSYM    DATA     BYTE      P2
      00000090H   SFRSYM    DATA     BYTE      P1
      00000080H   SFRSYM    DATA     BYTE      P0

      ---         MODULE    ---      ---       SEEKFREE_CONFIG
      00FF00A6H   PUBLIC    CODE     ---       dl1b_default_configuration
      00FF012DH   PUBLIC    CODE     ---       imu660ra_config_file

      ---         MODULE    ---      ---       PRINTF
      000010F1H   PUBLIC    EDATA    ---       ?PRINTF?BYTE
      00FF475EH   PUBLIC    CODE     NEAR LAB  PRINTF

      ---         MODULE    ---      ---       ?C?PRNFMT
      00FF47B7H   PUBLIC    CODE     ---       ?C?PRNFMT

      ---         MODULE    ---      ---       ?C?FPCONVERT
      00FF4BD4H   PUBLIC    CODE     ---       ?C?FPCONVERT
      00FF4C8CH   PUBLIC    CODE     ---       ?C?FPROUND

      ---         MODULE    ---      ---       ?C?FTNPWR
      00FF4CFFH   PUBLIC    CODE     ---       ?C?FTNPWR

      ---         MODULE    ---      ---       ?C_START
      00FF0000H   PUBLIC    CODE     ---       ?C?STARTUP
      00FF0000H   PUBLIC    CODE     ---       ?C_STARTUP

      ---         MODULE    ---      ---       ?C?INITEDATA
      00FFA2FCH   PUBLIC    CODE     ---       ?C?INITEDATA

      ---         MODULE    ---      ---       ?C?SIDIV
      00FF4D36H   PUBLIC    CODE     ---       ?C?SIDIV

      ---         MODULE    ---      ---       ?C?LMUL
      00FF4D68H   PUBLIC    CODE     ---       ?C?LMUL

      ---         MODULE    ---      ---       ?C?LIMUL
      00FF4D79H   PUBLIC    CODE     ---       ?C?LIMUL

      ---         MODULE    ---      ---       ?C?ULDIV
      00FF4D84H   PUBLIC    CODE     NEAR LAB  ?C?ULDIV
      00FF4D82H   PUBLIC    CODE     NEAR LAB  ?C?ULIDIV

      ---         MODULE    ---      ---       ?C?SLDIV
      00FF4DD5H   PUBLIC    CODE     NEAR LAB  ?C?SLDIV

      ---         MODULE    ---      ---       ?C?BMOVENP
      00FF4E0BH   PUBLIC    CODE     ---       ?C?BMOVENP
      00FF4E09H   PUBLIC    CODE     ---       ?C?BMOVENP8

      ---         MODULE    ---      ---       STRLEN

      ---         MODULE    ---      ---       memcpy
      00FFA43EH   PUBLIC    CODE     ---       memcpy?_

      ---         MODULE    ---      ---       memset
      00FFA5AEH   PUBLIC    CODE     ---       memset?_

      ---         MODULE    ---      ---       realloc

      ---         MODULE    ---      ---       ?C?INITEDATA_END
      00FFB194H   PUBLIC    HCONST   WORD      ?C?INITEDATA_END

      ---         MODULE    ---      ---       malloc
L251 LINKER/LOCATER V4.66.93.0                                                        12/27/2024  03:02:31  PAGE 138



      ---         MODULE    ---      ---       free

      ---         MODULE    ---      ---       mdefine
      00001B0DH   PUBLIC    HDATA    ---       __mp__



*** WARNING L7: MODULE NAME NOT UNIQUE
    MODULE:  .\Out_File\circle.obj (circle)

*** ERROR L127: UNRESOLVED EXTERNAL SYMBOL
    SYMBOL:  displa_0
    MODULE:  .\Out_File\main.obj (main)

*** ERROR L128: REFERENCE MADE TO UNRESOLVED EXTERNAL
    SYMBOL:  displa_0
    MODULE:  .\Out_File\main.obj (main)
    ADDRESS: FF98B0H

Program Size: data=8.0 edata+hdata=6921 xdata=0 const=3306 code=42624
L251 RUN COMPLETE.  1 WARNING(S),  2 ERROR(S)
